ccopy_reg
_reconstructor
p1
(ctensorflow.contrib.learn.python.learn.preprocessing.text
VocabularyProcessor
p2
c__builtin__
object
p3
NtRp4
(dp5
S'vocabulary_'
p6
g1
(ctensorflow.contrib.learn.python.learn.preprocessing.categorical_vocabulary
CategoricalVocabulary
p7
g3
NtRp8
(dp9
S'_freeze'
p10
I01
sS'_unknown_token'
p11
S'<UNK>'
p12
sS'_support_reverse'
p13
I01
sS'_freq'
p14
(dp15
S'stock'
p16
I7
sS'limited'
p17
I30
sS'pardon'
p18
I20
sS'raining'
p19
I16
sS'copy'
p20
I14
sS'child'
p21
I209
sS'colleges'
p22
I18
sS'yellow'
p23
I15
sS'four'
p24
I354
sS'facilities'
p25
I12
sS'nursery'
p26
I12
sS'sleep'
p27
I38
sS'hanging'
p28
I11
sS'oldest'
p29
I35
sS'hate'
p30
I70
sS'chili'
p31
I8
sS'pack'
p32
I8
sS'forget'
p33
I38
sS'someplace'
p34
I22
sS'votes'
p35
I9
sS'voter'
p36
I7
sS'buddy'
p37
I18
sS'paris'
p38
I9
sS'bike'
p39
I49
sS'voted'
p40
I26
sS'whatsoever'
p41
I11
sS'under'
p42
I120
sS'recycle'
p43
I52
sS'teaching'
p44
I65
sS'sorry'
p45
I71
sS'pride'
p46
I12
sS'worth'
p47
I104
sS'risk'
p48
I13
sS'pages'
p49
I7
sS'forties'
p50
I15
sS'every'
p51
I479
sS'jack'
p52
I13
sS'affect'
p53
I7
sS'bringing'
p54
I18
sS'electronics'
p55
I9
sS'tickets'
p56
I22
sS'believed'
p57
I7
sS'school'
p58
I758
sS'basics'
p59
I8
sS'jacket'
p60
I9
sS'skills'
p61
I13
sS'costner'
p62
I10
sS'companies'
p63
I60
sS'solution'
p64
I25
sS'humidity'
p65
I15
sS'tools'
p66
I9
sS'convenience'
p67
I7
sS'woods'
p68
I11
sS'math'
p69
I15
sS'cholesterol'
p70
I9
sS'murders'
p71
I12
sS'ups'
p72
I11
sS'clothes'
p73
I50
sS'enjoy'
p74
I274
sS'force'
p75
I65
sS'quilt'
p76
I8
sS'tired'
p77
I39
sS'phones'
p78
I9
sS'consistent'
p79
I8
sS'direct'
p80
I20
sS'elections'
p81
I13
sS'tires'
p82
I11
sS'talks'
p83
I14
sS'second'
p84
I121
sS'street'
p85
I73
sS'arms'
p86
I7
sS'air'
p87
I124
sS'machines'
p88
I25
sS'even'
p89
I891
sS'established'
p90
I9
sS'disk'
p91
I7
sS'hide'
p92
I14
sS'prisons'
p93
I17
sS'saved'
p94
I20
sS'panama'
p95
I14
sS'cooking'
p96
I42
sS'liberty'
p97
I7
sS'lights'
p98
I11
sS'above'
p99
I22
sS'designing'
p100
I7
sS'new'
p101
I452
sS'ever'
p102
I402
sS'disney'
p103
I16
sS'told'
p104
I118
sS'agreement'
p105
I10
sS'kicked'
p106
I8
sS'whose'
p107
I9
sS'never'
p108
I679
sS'here'
p109
I1138
sS'hundreds'
p110
I19
sS'met'
p111
I28
sS'china'
p112
I33
sS'cart'
p113
I7
sS'active'
p114
I33
sS'path'
p115
I7
sS'cardboard'
p116
I7
sS'dry'
p117
I43
sS'kids'
p118
I672
sS'daughter'
p119
I147
sS'tapes'
p120
I16
sS'items'
p121
I12
sS'leaves'
p122
I23
sS'changed'
p123
I83
sS'reports'
p124
I14
sS'robin'
p125
I11
sS'credit'
p126
I138
sS'jogging'
p127
I11
sS'menu'
p128
I7
sS'smoke'
p129
I36
sS'military'
p130
I60
sS'twenty-four'
p131
I17
sS'changes'
p132
I66
sS'punishment'
p133
I69
sS'york'
p134
I53
sS'golden'
p135
I18
sS'fantastic'
p136
I28
sS'campaign'
p137
I12
sS'reagan'
p138
I9
sS'schooling'
p139
I7
sS'root'
p140
I7
sS'replace'
p141
I18
sS'brought'
p142
I69
sS'ninety'
p143
I28
sS'moral'
p144
I10
sS'opportunities'
p145
I9
sS'jackets'
p146
I7
sS'counts'
p147
I7
sS'total'
p148
I33
sS'unit'
p149
I12
sS'plot'
p150
I9
sS'criminals'
p151
I9
sS'would'
p152
I2173
sS'army'
p153
I10
sS'full-time'
p154
I9
sS'hospital'
p155
I41
sS'played'
p156
I64
sS'negative'
p157
I17
sS'symphony'
p158
I7
sS'call'
p159
I265
sS'therefore'
p160
I7
sS'recommend'
p161
I13
sS'strike'
p162
I10
sS'indiana'
p163
I19
sS'type'
p164
I272
sS'tell'
p165
I300
sS'mckinney'
p166
I7
sS'successful'
p167
I13
sS'brings'
p168
I24
sS'wars'
p169
I10
sS'hurt'
p170
I54
sS'grief'
p171
I8
sS'phone'
p172
I115
sS'warm'
p173
I38
sS'adult'
p174
I14
sS'excellent'
p175
I51
sS'hole'
p176
I18
sS'hold'
p177
I74
sS'must'
p178
I110
sS'shoot'
p179
I45
sS'word'
p180
I72
sS'room'
p181
I134
sS'twenty-one'
p182
I11
sS'rights'
p183
I21
sS'work'
p184
I998
sS'gasoline'
p185
I10
sS'righty'
p186
I8
sS'roof'
p187
I27
sS'movies'
p188
I157
sS'era'
p189
I8
sS'oldsmobile'
p190
I8
sS'blooming'
p191
I9
sS'my'
p192
I3216
sS'example'
p193
I76
sS'initial'
p194
I7
sS'estate'
p195
I10
sS'give'
p196
I240
sS'household'
p197
I7
sS'organized'
p198
I18
sS'involve'
p199
I7
sS'foods'
p200
I12
sS'liter'
p201
I16
sS'want'
p202
I802
sS'keep'
p203
I360
sS'association'
p204
I9
sS'returned'
p205
I8
sS'end'
p206
I217
sS'turn'
p207
I100
sS'provide'
p208
I22
sS'travel'
p209
I50
sS'song'
p210
I22
sS'nuts'
p211
I13
sS'damage'
p212
I20
sS'machine'
p213
I47
sS'how'
p214
I1334
sS'sixties'
p215
I43
sS'answer'
p216
I54
sS'beach'
p217
I34
sS'pizza'
p218
I11
sS'badly'
p219
I13
sS'religiously'
p220
I8
sS'minority'
p221
I8
sS'mess'
p222
I37
sS'cadillac'
p223
I11
sS'after'
p224
I324
sS'lab'
p225
I14
sS'eighty-eight'
p226
I15
sS'wrong'
p227
I103
sS'jumping'
p228
I12
sS'lax'
p229
I7
sS'lay'
p230
I25
sS'sentencing'
p231
I10
sS'president'
p232
I36
sS'law'
p233
I68
sS'lap'
p234
I7
sS'types'
p235
I46
sS'las'
p236
I7
sS'purchase'
p237
I14
sS'third'
p238
I46
sS'sets'
p239
I9
sS'fewer'
p240
I7
sS'dealer'
p241
I8
sS'grant'
p242
I10
sS'appreciate'
p243
I26
sS'maintain'
p244
I10
sS'green'
p245
I56
sS'entertained'
p246
I8
sS'keeps'
p247
I44
sS'worst'
p248
I34
sS'democratic'
p249
I13
sS'order'
p250
I47
sS'wind'
p251
I58
sS'wine'
p252
I18
sS'office'
p253
I72
sS'deck'
p254
I10
sS'over'
p255
I701
sS'satisfied'
p256
I9
sS'thousands'
p257
I14
sS'japan'
p258
I15
sS'hook'
p259
I8
sS'mayor'
p260
I7
sS'before'
p261
I413
sS'fit'
p262
I36
sS'somewhere'
p263
I102
sS'screaming'
p264
I7
sS'fix'
p265
I31
sS'denver'
p266
I16
sS'writing'
p267
I54
sS'better'
p268
I343
sS'differently'
p269
I11
sS'weeks'
p270
I144
sS'easier'
p271
I76
sS'versus'
p272
I7
sS'then'
p273
I1844
sS'them'
p274
I2290
sS'iowa'
p275
I23
sS'unfortunate'
p276
I12
sS'combination'
p277
I11
sS'safe'
p278
I30
sS'finish'
p279
I16
sS'break'
p280
I58
sS'band'
p281
I20
sS'roommate'
p282
I11
sS'hiring'
p283
I12
sS'effects'
p284
I18
sS'they'
p285
I8972
sS'schools'
p286
I173
sS'one'
p287
I2855
sS'silver'
p288
I8
sS'bank'
p289
I38
sS'bread'
p290
I22
sS'meat'
p291
I18
sS'regularly'
p292
I14
sS'potatoes'
p293
I8
sS'reasonably'
p294
I10
sS'l'
I60
sS'detroit'
p295
I19
sS'grows'
p296
I8
sS'choir'
p297
I8
sS'conflict'
p298
I14
sS'reasonable'
p299
I33
sS'each'
p300
I154
sS'went'
p301
I627
sS'side'
p302
I134
sS'mean'
p303
I1754
sS'financial'
p304
I19
sS'covered'
p305
I21
sS'independent'
p306
I16
sS'series'
p307
I29
sS'crimes'
p308
I48
sS'wednesday'
p309
I8
sS'vote'
p310
I137
sS'taught'
p311
I52
sS'forgot'
p312
I22
sS'navy'
p313
I17
sS'aids'
p314
I31
sS'saturday'
p315
I34
sS'whip'
p316
I10
sS'network'
p317
I9
sS'driving'
p318
I66
sS'god'
p319
I101
sS'pensacola'
p320
I7
sS'diesel'
p321
I13
sS'forty'
p322
I63
sS'george'
p323
I7
sS'content'
p324
I8
sS'laid'
p325
I20
sS'medicine'
p326
I7
sS'got'
p327
I1778
sS'twenty-five'
p328
I49
sS'forth'
p329
I85
sS'foundation'
p330
I9
sS'arizona'
p331
I8
sS'turning'
p332
I18
sS'little'
p333
I1249
sS'free'
p334
I70
sS'standard'
p335
I36
sS'carried'
p336
I13
sS'struggle'
p337
I7
sS'subjects'
p338
I9
sS'wanted'
p339
I212
sS'storm'
p340
I19
sS'enormous'
p341
I7
sS'ate'
p342
I14
sS'shelves'
p343
I8
sS'starts'
p344
I42
sS'inexpensive'
p345
I7
sS'days'
p346
I205
sS'filter'
p347
I7
sS'lousy'
p348
I9
sS'heck'
p349
I15
sS'tied'
p350
I11
sS'uses'
p351
I14
sS'onto'
p352
I10
sS'bite'
p353
I9
sS'overnight'
p354
I7
sS'cleaning'
p355
I17
sS'chopped'
p356
I7
sS'already'
p357
I107
sS'twenty-two'
p358
I18
sS'grade'
p359
I68
sS'encouraging'
p360
I12
sS'rank'
p361
I7
sS'hearing'
p362
I30
sS'wash'
p363
I19
sS'relations'
p364
I8
sS'another'
p365
I329
sS'bicycle'
p366
I20
sS'thick'
p367
I15
sS'electronic'
p368
I13
sS'hood'
p369
I12
sS'awfully'
p370
I9
sS'traction'
p371
I7
sS'olds'
p372
I11
sS'basketball'
p373
I28
sS'fence'
p374
I12
sS'service'
p375
I93
sS'top'
p376
I95
sS'disco'
p377
I7
sS'girls'
p378
I46
sS'fiction'
p379
I19
sS'needed'
p380
I80
sS'master'
p381
I28
sS'too'
p382
I1497
sS'tom'
p383
I18
sS'percentage'
p384
I20
sS'john'
p385
I16
sS'dogs'
p386
I74
sS'listen'
p387
I89
sS'urban'
p388
I17
sS'ceiling'
p389
I9
sS'murder'
p390
I36
sS'grandchildren'
p391
I24
sS'canned'
p392
I10
sS'gym'
p393
I8
sS'serve'
p394
I63
sS'took'
p395
I221
sS'japanese'
p396
I10
sS'western'
p397
I32
sS'somewhat'
p398
I14
sS'wardrobe'
p399
I7
sS'distance'
p400
I21
sS'trek'
p401
I20
sS'target'
p402
I8
sS'showed'
p403
I24
sS'tree'
p404
I26
sS'likely'
p405
I27
sS'project'
p406
I33
sS'matter'
p407
I163
sS'classes'
p408
I59
sS'silly'
p409
I11
sS'friend'
p410
I139
sS'iron'
p411
I16
sS'spoiled'
p412
I13
sS'k'
I15
sS'feeling'
p413
I61
sS'mini'
p414
I15
sS'challenging'
p415
I7
sS'ran'
p416
I31
sS'boston'
p417
I31
sS'modern'
p418
I16
sS'mind'
p419
I106
sS'mine'
p420
I162
sS'glass'
p421
I44
sS'anybody'
p422
I122
sS'return'
p423
I18
sS'talking'
p424
I424
sS'rat'
p425
I9
sS'rap'
p426
I18
sS'seen'
p427
I348
sS'seem'
p428
I155
sS'picks'
p429
I10
sS'tells'
p430
I15
sS'relatively'
p431
I12
sS'forced'
p432
I17
sS'concrete'
p433
I11
sS'convenient'
p434
I27
sS'responsible'
p435
I15
sS'snow'
p436
I76
sS'investment'
p437
I11
sS'oriented'
p438
I11
sS'sound'
p439
I59
sS'causing'
p440
I9
sS'luxury'
p441
I13
sS'doors'
p442
I23
sS'laughed'
p443
I14
sS'layoffs'
p444
I9
sS'rides'
p445
I9
sS'quarterback'
p446
I20
sS'blue'
p447
I48
sS'nobody'
p448
I74
sS'committing'
p449
I7
sS'though'
p450
I401
sS'object'
p451
I7
sS'sue'
p452
I7
sS'regular'
p453
I84
sS'germany'
p454
I22
sS'letter'
p455
I24
sS'phase'
p456
I10
sS'alabama'
p457
I12
sS'neighborhoods'
p458
I12
sS'medical'
p459
I32
sS'camp'
p460
I34
sS'm'
I99
sS'dog'
p461
I153
sS'psychology'
p462
I9
sS'definitely'
p463
I160
sS'tech'
p464
I18
sS'entertaining'
p465
I12
sS'voting'
p466
I33
sS'came'
p467
I273
sS'renting'
p468
I8
sS'saying'
p469
I171
sS'random'
p470
I28
sS'colors'
p471
I32
sS'radio'
p472
I64
sS'solutions'
p473
I9
sS'participate'
p474
I13
sS'earth'
p475
I20
sS'enjoyed'
p476
I152
sS'lessons'
p477
I18
sS'orleans'
p478
I24
sS'busy'
p479
I43
sS'situations'
p480
I18
sS'weekends'
p481
I31
sS'unemployment'
p482
I8
sS'minnesota'
p483
I23
sS'wasting'
p484
I7
sS'institution'
p485
I10
sS'bush'
p486
I33
sS'rich'
p487
I21
sS'folks'
p488
I43
sS'attitudes'
p489
I8
sS'rice'
p490
I30
sS'wearing'
p491
I20
sS'do'
p492
I8484
sS'mixture'
p493
I7
sS'honda'
p494
I29
sS'stop'
p495
I58
sS'cardinals'
p496
I12
sS'coast'
p497
I39
sS'pocket'
p498
I8
sS'report'
p499
I27
sS'nasty'
p500
I8
sS'nurse'
p501
I10
sS'hall'
p502
I10
sS'runs'
p503
I30
sS'bar'
p504
I7
sS'countries'
p505
I82
sS'fields'
p506
I11
sS'guns'
p507
I61
sS'bag'
p508
I29
sS'bad'
p509
I394
sS'tole'
p510
I8
sS'shots'
p511
I11
sS'release'
p512
I7
sS'steak'
p513
I15
sS'automatic'
p514
I20
sS'farther'
p515
I11
sS'gallon'
p516
I12
sS'blew'
p517
I7
sS'mandatory'
p518
I20
sS'victim'
p519
I8
sS'fair'
p520
I37
sS'habit'
p521
I17
sS'testing'
p522
I59
sS'checks'
p523
I11
sS'depends'
p524
I57
sS'decided'
p525
I101
sS'result'
p526
I8
sS'lexus'
p527
I7
sS'best'
p528
I170
sS'subject'
p529
I85
sS'said'
p530
I684
sS'lots'
p531
I106
sS'away'
p532
I308
sS'grandmother'
p533
I31
sS'mud'
p534
I8
sS'r'
I59
sS'finger'
p535
I12
sS'pets'
p536
I28
sS'hopefully'
p537
I42
sS"'cause"
p538
I9
sS'sorts'
p539
I32
sS'approach'
p540
I10
sS'letting'
p541
I17
sS'we'
p542
I7041
sS'men'
p543
I98
sS'terms'
p544
I59
sS'wears'
p545
I8
sS'nature'
p546
I25
sS'wo'
p547
I115
sS'felony'
p548
I8
sS'however'
p549
I30
sS'religious'
p550
I12
sS'boss'
p551
I22
sS'mazda'
p552
I8
sS'retirement'
p553
I21
sS'wear'
p554
I127
sS'extent'
p555
I22
sS'news'
p556
I186
sS'picking'
p557
I25
sS'debt'
p558
I16
sS'kitchen'
p559
I26
sS'cop'
p560
I15
sS'climate'
p561
I11
sS'accident'
p562
I11
sS'accused'
p563
I7
sS'cow'
p564
I15
sS'country'
p565
I279
sS'ill'
p566
I7
sS'politically'
p567
I8
sS'against'
p568
I107
sS'amazing'
p569
I64
sS'participating'
p570
I9
sS'players'
p571
I32
sS'games'
p572
I53
sS'planned'
p573
I16
sS'hated'
p574
I9
sS'expense'
p575
I18
sS'asked'
p576
I53
sS'tough'
p577
I79
sS'prepared'
p578
I10
sS'character'
p579
I25
sS'steaks'
p580
I8
sS'hers'
p581
I20
sS'canyon'
p582
I14
sS'springs'
p583
I15
sS'trust'
p584
I19
sS'speak'
p585
I27
sS'bathroom'
p586
I24
sS'iraq'
p587
I10
sS'sam'
p588
I11
sS'beef'
p589
I18
sS'basis'
p590
I46
sS'union'
p591
I20
sS'three'
p592
I560
sS'been'
p593
I1429
sS'quickly'
p594
I30
sS'bothers'
p595
I21
sS'beer'
p596
I13
sS'much'
p597
I1273
sS'interest'
p598
I100
sS'basic'
p599
I42
sS'expected'
p600
I25
sS'flexible'
p601
I11
sS'fry'
p602
I13
sS'lovely'
p603
I9
sS'topics'
p604
I9
sS'containers'
p605
I13
sS'threw'
p606
I19
sS'life'
p607
I232
sS'families'
p608
I62
sS'innocent'
p609
I16
sS'relaxing'
p610
I18
sS'eastern'
p611
I18
sS'drugs'
p612
I115
sS'republicans'
p613
I7
sS'afternoons'
p614
I7
sS'craft'
p615
I12
sS'personally'
p616
I44
sS'catch'
p617
I71
sS'worked'
p618
I152
sS'applied'
p619
I12
sS'east'
p620
I75
sS'tank'
p621
I14
sS'sounded'
p622
I11
sS'strict'
p623
I17
sS'kentucky'
p624
I16
sS'n'
I117
sS'lesser'
p625
I12
sS'ugly'
p626
I8
sS'near'
p627
I68
sS'suppose'
p628
I51
sS'teachers'
p629
I84
sS'appeals'
p630
I9
sS'aid'
p631
I17
sS'property'
p632
I38
sS'flooding'
p633
I7
sS'employees'
p634
I20
sS'skirts'
p635
I14
sS'mistake'
p636
I18
sS'seven'
p637
I129
sS'mexico'
p638
I34
sS'is'
p639
I5687
sS'it'
p640
I18404
sS'expenses'
p641
I13
sS'shame'
p642
I17
sS'eighteen'
p643
I48
sS'brake'
p644
I7
sS'cans'
p645
I65
sS'uncle'
p646
I16
sS'in'
p647
I8541
sS'tremendously'
p648
I7
sS'caesar'
p649
I7
sS'if'
p650
I2625
sS'grown'
p651
I33
sS'memorial'
p652
I7
sS'bottles'
p653
I33
sS'perform'
p654
I9
sS'things'
p655
I1424
sS'make'
p656
I604
sS'wound'
p657
I13
sS'airport'
p658
I7
sS'complex'
p659
I17
sS'split'
p660
I11
sS'babies'
p661
I29
sS'vegetable'
p662
I11
sS'success'
p663
I7
sS'several'
p664
I108
sS'showing'
p665
I21
sS'european'
p666
I9
sS'wheel'
p667
I16
sS'fairly'
p668
I83
sS'pontiac'
p669
I7
sS'ceilings'
p670
I8
sS'social'
p671
I62
sS'hang'
p672
I34
sS'rain'
p673
I88
sS'hand'
p674
I92
sS'suburb'
p675
I14
sS'documents'
p676
I8
sS'garlic'
p677
I10
sS'characters'
p678
I15
sS'opportunity'
p679
I35
sS'thoughts'
p680
I8
sS'kid'
p681
I96
sS'butter'
p682
I10
sS'vermont'
p683
I11
sS'kept'
p684
I90
sS'programs'
p685
I70
sS'los'
p686
I17
sS'settled'
p687
I14
sS'drip'
p688
I7
sS'ocean'
p689
I9
sS'savings'
p690
I16
sS'contact'
p691
I11
sS'greatest'
p692
I13
sS'mother'
p693
I165
sS'the'
p694
I20271
sS'yours'
p695
I37
sS'left'
p696
I105
sS'opinions'
p697
I15
sS'just'
p698
I4884
sS'sentence'
p699
I23
sS'whatnot'
p700
I14
sS'aside'
p701
I10
sS'grades'
p702
I18
sS'identify'
p703
I8
sS'thanks'
p704
I50
sS'human'
p705
I36
sS'facts'
p706
I13
sS'yep'
p707
I100
sS'yes'
p708
I1007
sS'yet'
p709
I203
sS'previous'
p710
I7
sS'dining'
p711
I14
sS'unique'
p712
I7
sS'hills'
p713
I19
sS'instance'
p714
I32
sS'had'
p715
I2333
sS'spread'
p716
I20
sS'advantages'
p717
I7
sS'board'
p718
I32
sS'easy'
p719
I164
sS'prison'
p720
I53
sS'consideration'
p721
I9
sS'save'
p722
I51
sS'gave'
p723
I63
sS'shoulder'
p724
I7
sS'seventy-five'
p725
I17
sS'breaks'
p726
I14
sS'possible'
p727
I48
sS'possibly'
p728
I27
sS'boxes'
p729
I30
sS'background'
p730
I29
sS'linda'
p731
I7
sS'judge'
p732
I29
sS'feelings'
p733
I14
sS'advanced'
p734
I7
sS'apart'
p735
I17
sS'desire'
p736
I9
sS'county'
p737
I28
sS'gift'
p738
I7
sS'hunt'
p739
I12
sS'specific'
p740
I12
sS'steps'
p741
I16
sS'night'
p742
I228
sS'hung'
p743
I9
sS'security'
p744
I23
sS'beneficial'
p745
I12
sS'right'
p746
I3827
sS'old'
p747
I451
sS'creek'
p748
I26
sS'deal'
p749
I156
sS'people'
p750
I1801
sS'toyota'
p751
I12
sS'tournament'
p752
I7
sS'somehow'
p753
I28
sS'dead'
p754
I32
sS'born'
p755
I33
sS'clubs'
p756
I20
sS'printer'
p757
I17
sS'hassle'
p758
I16
sS'election'
p759
I9
sS'escape'
p760
I7
sS'dear'
p761
I10
sS'cocaine'
p762
I7
sS'humor'
p763
I7
sS'for'
p764
I3992
sS'bottom'
p765
I33
sS'purple'
p766
I14
sS'phenomenal'
p767
I10
sS'opposite'
p768
I20
sS'ice'
p769
I32
sS'creative'
p770
I14
sS'everything'
p771
I478
sS'asking'
p772
I19
sS'offices'
p773
I7
sS'beating'
p774
I7
sS'christmas'
p775
I76
sS'sewing'
p776
I12
sS'marketing'
p777
I10
sS'payment'
p778
I16
sS'burn'
p779
I17
sS'graduated'
p780
I29
sS'post'
p781
I7
sS'manufacturing'
p782
I9
sS'super'
p783
I23
sS'cowboy'
p784
I15
sS'theirs'
p785
I16
sS'newspapers'
p786
I43
sS'months'
p787
I185
sS'o'
I36
sS'magazine'
p788
I39
sS'plus'
p789
I69
sS'afternoon'
p790
I34
sS'commit'
p791
I18
sS'slightly'
p792
I8
sS'automatically'
p793
I17
sS'match'
p794
I12
sS'bath'
p795
I18
sS'raised'
p796
I44
sS'indians'
p797
I7
sS'froze'
p798
I7
sS'facility'
p799
I14
sS'civil'
p800
I31
sS'pays'
p801
I13
sS'profession'
p802
I13
sS'attorney'
p803
I9
sS'son'
p804
I121
sS'down'
p805
I805
sS'freshman'
p806
I10
sS'magazines'
p807
I47
sS'wrap'
p808
I9
sS'sox'
p809
I8
sS'cafeteria'
p810
I10
sS'crowd'
p811
I12
sS'support'
p812
I57
sS'tennis'
p813
I26
sS'knowing'
p814
I22
sS'class'
p815
I114
sS'stuck'
p816
I34
sS'fought'
p817
I7
sS'way'
p818
I899
sS'jane'
p819
I11
sS'music'
p820
I186
sS'was'
p821
I5982
sS'war'
p822
I116
sS'leading'
p823
I9
sS'happy'
p824
I60
sS'lowest'
p825
I8
sS'head'
p826
I42
sS'form'
p827
I23
sS'offer'
p828
I31
sS'becoming'
p829
I24
sS'differences'
p830
I10
sS'forever'
p831
I30
sS'ford'
p832
I15
sS'garages'
p833
I7
sS'heat'
p834
I31
sS'hear'
p835
I185
sS'elderly'
p836
I27
sS'solar'
p837
I7
sS'survive'
p838
I9
sS'removed'
p839
I9
sS'true'
p840
I494
sS'fort'
p841
I15
sS'inside'
p842
I61
sS'attached'
p843
I16
sS'trends'
p844
I8
sS'devices'
p845
I8
sS'until'
p846
I227
sS'retire'
p847
I7
sS'unanimous'
p848
I7
sS'sides'
p849
I12
sS'daddy'
p850
I9
sS'seafood'
p851
I12
sS'trim'
p852
I19
sS'proud'
p853
I11
sS'liberal'
p854
I18
sS'classic'
p855
I14
sS'frederick'
p856
I7
sS'novel'
p857
I9
sS'proven'
p858
I7
sS'sale'
p859
I17
sS'manure'
p860
I8
sS'presented'
p861
I10
sS'sometime'
p862
I27
sS'awhile'
p863
I23
sS'annoying'
p864
I8
sS'trip'
p865
I45
sS'physical'
p866
I20
sS'pipe'
p867
I9
sS'engines'
p868
I10
sS'dying'
p869
I13
sS'floor'
p870
I42
sS'whereas'
p871
I20
sS'generally'
p872
I44
sS'actor'
p873
I20
sS'flood'
p874
I7
sS'interested'
p875
I93
sS'role'
p876
I21
sS'holding'
p877
I18
sS'papers'
p878
I25
sS'test'
p879
I62
sS'tie'
p880
I15
sS'smell'
p881
I12
sS'roll'
p882
I19
sS'picture'
p883
I28
sS"'s"
p884
I14175
sS'brothers'
p885
I29
sS'garland'
p886
I29
sS"o'clock"
p887
I36
sS'handicap'
p888
I9
sS'surprise'
p889
I7
sS'football'
p890
I72
sS'diet'
p891
I15
sS"'d"
p892
I760
sS'scores'
p893
I8
sS'rolling'
p894
I8
sS"'m"
p895
I2517
sS'aware'
p896
I51
sS'weekend'
p897
I105
sS'died'
p898
I41
sS'legs'
p899
I9
sS'younger'
p900
I51
sS'happening'
p901
I45
sS'excuse'
p902
I50
sS'assume'
p903
I20
sS'normally'
p904
I39
sS'together'
p905
I175
sS'spanked'
p906
I13
sS'beds'
p907
I13
sS'aerobic'
p908
I8
sS'vietnam'
p909
I21
sS'time'
p910
I1572
sS'push'
p911
I34
sS'serious'
p912
I43
sS'stick'
p913
I30
sS'neighbors'
p914
I17
sS'coach'
p915
I28
sS'managed'
p916
I12
sS'impulse'
p917
I7
sS'corps'
p918
I30
sS'whoever'
p919
I18
sS'dance'
p920
I7
sS'skip'
p921
I7
sS'rob'
p922
I7
sS'atmosphere'
p923
I12
sS'hawaii'
p924
I12
sS'w'
I8
sS'known'
p925
I26
sS'manager'
p926
I18
sS'mile'
p927
I22
sS'microwave'
p928
I14
sS'skiing'
p929
I25
sS'battle'
p930
I9
sS'playoffs'
p931
I11
sS'chair'
p932
I8
sS'milk'
p933
I32
sS'competition'
p934
I8
sS'row'
p935
I26
sS'certainly'
p936
I150
sS'factories'
p937
I8
sS'depend'
p938
I13
sS'zone'
p939
I8
sS'father'
p940
I73
sS'environment'
p941
I43
sS'lotus'
p942
I13
sS'charge'
p943
I48
sS'pace'
p944
I8
sS'circumstances'
p945
I15
sS'southwest'
p946
I11
sS'me'
p947
I1417
sS'vet'
p948
I14
sS'string'
p949
I10
sS'advantage'
p950
I30
sS'cheap'
p951
I34
sS'none'
p952
I20
sS'choice'
p953
I54
sS'emergencies'
p954
I7
sS'automobiles'
p955
I8
sS'vegas'
p956
I7
sS'stays'
p957
I21
sS'cook'
p958
I91
sS'join'
p959
I19
sS'trouble'
p960
I87
sS'exact'
p961
I11
sS'minute'
p962
I56
sS'cool'
p963
I36
sS'impressive'
p964
I8
sS'level'
p965
I63
sS'did'
p966
I1995
sS'die'
p967
I34
sS'dig'
p968
I18
sS'gun'
p969
I99
sS'standards'
p970
I14
sS'leave'
p971
I102
sS'p'
I119
sS'settle'
p972
I7
sS'team'
p973
I115
sS'quick'
p974
I46
sS'guy'
p975
I202
sS'teenager'
p976
I12
sS'dip'
p977
I11
sS'round'
p978
I19
sS'added'
p979
I17
sS'sixty-five'
p980
I17
sS'upper'
p981
I18
sS'pork'
p982
I8
sS'talked'
p983
I126
sS'says'
p984
I138
sS'nineties'
p985
I7
sS'seventy-eight'
p986
I10
sS'trend'
p987
I16
sS'dealing'
p988
I21
sS'discover'
p989
I10
sS'sign'
p990
I34
sS'invaded'
p991
I14
sS'cost'
p992
I96
sS'shirts'
p993
I17
sS'run'
p994
I158
sS'bake'
p995
I8
sS'rough'
p996
I26
sS'substitute'
p997
I12
sS'boats'
p998
I8
sS'adds'
p999
I9
sS'stands'
p1000
I7
sS'seventy-four'
p1001
I7
sS'realizing'
p1002
I7
sS'current'
p1003
I35
sS'suspect'
p1004
I18
sS'goes'
p1005
I212
sS'international'
p1006
I14
sS'falling'
p1007
I14
sS'appeal'
p1008
I17
sS'sweaters'
p1009
I11
sS'filled'
p1010
I15
sS'supporting'
p1011
I9
sS'jury'
p1012
I72
sS'oldies'
p1013
I7
sS'grandparents'
p1014
I26
sS'learn'
p1015
I97
sS'french'
p1016
I33
sS'understanding'
p1017
I14
sS'water'
p1018
I158
sS'entertain'
p1019
I7
sS'baseball'
p1020
I73
sS'groups'
p1021
I31
sS'address'
p1022
I18
sS'alone'
p1023
I47
sS'along'
p1024
I116
sS'teaches'
p1025
I9
sS'teacher'
p1026
I75
sS'change'
p1027
I180
sS'wait'
p1028
I95
sS'box'
p1029
I35
sS'boy'
p1030
I183
sS'thirty'
p1031
I143
sS'healthy'
p1032
I14
sS'shift'
p1033
I12
sS'twenty-seven'
p1034
I7
sS'guilty'
p1035
I42
sS'trial'
p1036
I29
sS'usually'
p1037
I336
sS'weird'
p1038
I42
sS'studies'
p1039
I11
sS'engineer'
p1040
I23
sS'teenage'
p1041
I10
sS'love'
p1042
I222
sS'morals'
p1043
I10
sS'extra'
p1044
I57
sS'saints'
p1045
I10
sS'prefer'
p1046
I18
sS'losing'
p1047
I16
sS'durham'
p1048
I7
sS'rarely'
p1049
I10
sS'crisis'
p1050
I11
sS'market'
p1051
I48
sS'sky'
p1052
I8
sS'everybody'
p1053
I265
sS'outrageous'
p1054
I12
sS'troops'
p1055
I12
sS'working'
p1056
I257
sS'prove'
p1057
I10
sS'positive'
p1058
I31
sS'angry'
p1059
I7
sS'visit'
p1060
I46
sS'sherman'
p1061
I7
sS'sports'
p1062
I66
sS'live'
p1063
I372
sS'going'
p1064
I1961
sS'opposed'
p1065
I26
sS'wondering'
p1066
I36
sS'memory'
p1067
I14
sS'today'
p1068
I136
sS'sharing'
p1069
I11
sS'lawns'
p1070
I7
sS'afford'
p1071
I61
sS'flying'
p1072
I11
sS'acceptable'
p1073
I7
sS'curriculum'
p1074
I11
sS'ooh'
p1075
I45
sS'chocolate'
p1076
I16
sS'downtown'
p1077
I32
sS'fuel'
p1078
I14
sS'everywhere'
p1079
I30
sS'employed'
p1080
I7
sS'cases'
p1081
I49
sS'effort'
p1082
I26
sS'fly'
p1083
I19
sS'organizations'
p1084
I12
sS'pushed'
p1085
I11
sS'car'
p1086
I352
sS'originally'
p1087
I55
sS'cat'
p1088
I119
sS'districts'
p1089
I12
sS'soup'
p1090
I11
sS'hardest'
p1091
I13
sS'values'
p1092
I29
sS'can'
p1093
I1799
sS'thirty-five'
p1094
I22
sS'growing'
p1095
I82
sS'making'
p1096
I122
sS'interstate'
p1097
I7
sS'dollars'
p1098
I241
sS'heart'
p1099
I38
sS'crazy'
p1100
I58
sS'citizens'
p1101
I8
sS'nursing'
p1102
I73
sS'figure'
p1103
I84
sS'december'
p1104
I11
sS'agent'
p1105
I8
sS'topic'
p1106
I89
sS'heard'
p1107
I290
sS'dropped'
p1108
I12
sS'allowed'
p1109
I21
sS'offense'
p1110
I8
sS'clothing'
p1111
I12
sS'occur'
p1112
I9
sS'pink'
p1113
I13
sS'requirements'
p1114
I8
sS'winter'
p1115
I83
sS'fortunately'
p1116
I18
sS'lubbock'
p1117
I13
sS'discussion'
p1118
I9
sS'means'
p1119
I41
sS'moves'
p1120
I7
sS'dinner'
p1121
I82
sS'write'
p1122
I58
sS'till'
p1123
I14
sS'sunday'
p1124
I38
sS'fourth'
p1125
I16
sS'youth'
p1126
I10
sS'guarantee'
p1127
I7
sS'economy'
p1128
I32
sS'staying'
p1129
I29
sS'laundry'
p1130
I7
sS'huge'
p1131
I51
sS'may'
p1132
I237
sS'neat'
p1133
I145
sS'fed'
p1134
I11
sS'eighty'
p1135
I42
sS'applications'
p1136
I8
sS'membership'
p1137
I10
sS'birthday'
p1138
I14
sS'mad'
p1139
I17
sS'date'
p1140
I14
sS'such'
p1141
I203
sS'data'
p1142
I29
sS'grow'
p1143
I49
sS'lifting'
p1144
I11
sS'man'
p1145
I129
sS'classroom'
p1146
I18
sS'stress'
p1147
I15
sS'natural'
p1148
I20
sS'remember'
p1149
I291
sS'johnson'
p1150
I17
sS'conscious'
p1151
I12
sS'whenever'
p1152
I47
sS'maybe'
p1153
I598
sS'checkbook'
p1154
I8
sS'complaining'
p1155
I7
sS'switch'
p1156
I16
sS'so'
p1157
I6086
sS'silence'
p1158
I13
sS'welcome'
p1159
I7
sS'tall'
p1160
I11
sS'wolves'
p1161
I26
sS'increase'
p1162
I13
sS'pulled'
p1163
I16
sS'talk'
p1164
I251
sS'typical'
p1165
I36
sS'cute'
p1166
I21
sS'serving'
p1167
I12
sS'shoes'
p1168
I29
sS'repair'
p1169
I16
sS'indeed'
p1170
I10
sS'mainly'
p1171
I46
sS'consulting'
p1172
I10
sS'years'
p1173
I978
sS'course'
p1174
I481
sS'cuts'
p1175
I17
sS'cold'
p1176
I97
sS'still'
p1177
I511
sS'birds'
p1178
I10
sS'tendency'
p1179
I9
sS'texan'
p1180
I13
sS'group'
p1181
I77
sS'thank'
p1182
I71
sS'hors'
p1183
I8
sS'interesting'
p1184
I340
sS'jim'
p1185
I13
sS'hot'
p1186
I86
sS'forms'
p1187
I12
sS'attraction'
p1188
I7
sS'window'
p1189
I18
sS'according'
p1190
I10
sS'policy'
p1191
I26
sS'mail'
p1192
I27
sS'main'
p1193
I61
sS'texas'
p1194
I336
sS'happened'
p1195
I107
sS'roses'
p1196
I9
sS'views'
p1197
I9
sS'recipes'
p1198
I22
sS'sooner'
p1199
I15
sS'nation'
p1200
I8
sS'underneath'
p1201
I14
sS'lunch'
p1202
I28
sS'slacks'
p1203
I14
sS'half'
p1204
I217
sS'not'
p1205
I3186
sS'now'
p1206
I1693
sS'killed'
p1207
I54
sS'term'
p1208
I27
sS'attorneys'
p1209
I7
sS'name'
p1210
I167
sS'sophomore'
p1211
I7
sS'opera'
p1212
I18
sS'january'
p1213
I18
sS"y'all"
p1214
I8
sS'drop'
p1215
I31
sS'realistic'
p1216
I16
sS'rock'
p1217
I45
sS'eighties'
p1218
I13
sS'quarter'
p1219
I18
sS'turtle'
p1220
I10
sS'el'
p1221
I7
sS'square'
p1222
I28
sS'individuals'
p1223
I12
sS'ed'
p1224
I9
sS'yeah'
p1225
I10309
sS'indianapolis'
p1226
I7
sS'catching'
p1227
I12
sS'year'
p1228
I889
sS'et'
p1229
I15
sS'happen'
p1230
I148
sS'teams'
p1231
I45
sS'plans'
p1232
I18
sS'canada'
p1233
I22
sS'living'
p1234
I116
sS'afghans'
p1235
I7
sS'opened'
p1236
I14
sS'space'
p1237
I64
sS'oklahoma'
p1238
I35
sS'concert'
p1239
I7
sS'downhill'
p1240
I7
sS'looking'
p1241
I212
sS'seriously'
p1242
I16
sS'stupid'
p1243
I20
sS'receiving'
p1244
I8
sS'correct'
p1245
I26
sS'shows'
p1246
I86
sS'eagle'
p1247
I8
sS'earlier'
p1248
I25
sS'theory'
p1249
I9
sS'cars'
p1250
I124
sS'million'
p1251
I23
sS'seventh'
p1252
I8
sS'possibility'
p1253
I11
sS'quite'
p1254
I331
sS'california'
p1255
I93
sS'besides'
p1256
I24
sS'seventy'
p1257
I33
sS'card'
p1258
I102
sS'care'
p1259
I393
sS'advance'
p1260
I12
sS'training'
p1261
I52
sS'language'
p1262
I20
sS'discussing'
p1263
I7
sS'programming'
p1264
I10
sS'honest'
p1265
I16
sS'chevy'
p1266
I10
sS'thing'
p1267
I1072
sS'place'
p1268
I354
sS'raleigh'
p1269
I27
sS'swing'
p1270
I19
sS'think'
p1271
I3945
sS'waited'
p1272
I10
sS'first'
p1273
I502
sS'cheese'
p1274
I29
sS'constantly'
p1275
I16
sS'saving'
p1276
I18
sS'legislation'
p1277
I10
sS'softball'
p1278
I10
sS'yourself'
p1279
I115
sS'americans'
p1280
I10
sS'long'
p1281
I461
sS'directly'
p1282
I8
sS'plano'
p1283
I120
sS'carry'
p1284
I35
sS'impossible'
p1285
I14
sS'sounds'
p1286
I232
sS'drove'
p1287
I24
sS'open'
p1288
I54
sS'tomorrow'
p1289
I16
sS'size'
p1290
I60
sS'rented'
p1291
I19
sS'city'
p1292
I165
sS'given'
p1293
I53
sS'necessarily'
p1294
I44
sS'checked'
p1295
I23
sS'district'
p1296
I18
sS'caught'
p1297
I70
sS'breed'
p1298
I8
sS'plastic'
p1299
I47
sS'anyone'
p1300
I47
sS'twenties'
p1301
I9
sS'draft'
p1302
I16
sS'white'
p1303
I73
sS'frame'
p1304
I14
sS'speaking'
p1305
I33
sS'gives'
p1306
I46
sS'coppell'
p1307
I7
sS'eyes'
p1308
I18
sS'mostly'
p1309
I116
sS'that'
p1310
I18403
sS'pittsburgh'
p1311
I9
sS'season'
p1312
I55
sS'huh'
p1313
I432
sS'broadcast'
p1314
I7
sS'released'
p1315
I7
sS'ridiculous'
p1316
I34
sS'flowers'
p1317
I40
sS'than'
p1318
I767
sS'population'
p1319
I26
sS'wide'
p1320
I28
sS'television'
p1321
I53
sS'unfortunately'
p1322
I59
sS'depressed'
p1323
I8
sS'crack'
p1324
I8
sS'require'
p1325
I23
sS'transferred'
p1326
I8
sS'coats'
p1327
I8
sS'future'
p1328
I52
sS'were'
p1329
I1462
sS'cards'
p1330
I79
sS'counselor'
p1331
I11
sS'russia'
p1332
I12
sS'and'
p1333
I22841
sS'san'
p1334
I82
sS'nicer'
p1335
I16
sS'considerably'
p1336
I7
sS'pro'
p1337
I16
sS'turned'
p1338
I78
sS'argument'
p1339
I14
sS'sad'
p1340
I61
sS'say'
p1341
I746
sS'suspense'
p1342
I7
sS'rent'
p1343
I52
sS'saw'
p1344
I214
sS'any'
p1345
I872
sS'kevin'
p1346
I8
sS'sat'
p1347
I22
sS'publicity'
p1348
I7
sS'conversion'
p1349
I9
sS'answering'
p1350
I8
sS'ideas'
p1351
I19
sS'shocked'
p1352
I8
sS'note'
p1353
I9
sS'equipment'
p1354
I42
sS'ideal'
p1355
I15
sS'take'
p1356
I699
sS'interior'
p1357
I8
sS'wanting'
p1358
I47
sS'concern'
p1359
I25
sS'relaxed'
p1360
I7
sS'channel'
p1361
I24
sS'begin'
p1362
I19
sS'sure'
p1363
I806
sS'pain'
p1364
I15
sS'normal'
p1365
I44
sS'track'
p1366
I27
sS'price'
p1367
I55
sS'knew'
p1368
I94
sS'paid'
p1369
I115
sS'falls'
p1370
I11
sS'nolan'
p1371
I10
sS'printed'
p1372
I7
sS'pair'
p1373
I18
sS'knee'
p1374
I22
sS'america'
p1375
I57
sS'winters'
p1376
I10
sS'latex'
p1377
I7
sS'lawn'
p1378
I50
sS'especially'
p1379
I188
sS'surprising'
p1380
I7
sS'cloth'
p1381
I10
sS'considered'
p1382
I33
sS'egg'
p1383
I7
sS'average'
p1384
I33
sS'later'
p1385
I76
sS'drive'
p1386
I131
sS'tooth'
p1387
I7
sS'federal'
p1388
I26
sS'jumped'
p1389
I16
sS'professional'
p1390
I28
sS'senior'
p1391
I16
sS'salt'
p1392
I13
sS'laws'
p1393
I31
sS'shop'
p1394
I37
sS'rating'
p1395
I9
sS'walking'
p1396
I42
sS'shot'
p1397
I57
sS'show'
p1398
I159
sS'german'
p1399
I13
sS'recipe'
p1400
I37
sS'fifty'
p1401
I108
sS'discovered'
p1402
I9
sS'bright'
p1403
I9
sS'pump'
p1404
I10
sS'corner'
p1405
I13
sS'mister'
p1406
I8
sS'fifth'
p1407
I16
sS'ground'
p1408
I58
sS'slow'
p1409
I29
sS'ratio'
p1410
I7
sS'gulf'
p1411
I15
sS'daily'
p1412
I11
sS'storms'
p1413
I11
sS'state'
p1414
I202
sS'crime'
p1415
I124
sS'only'
p1416
I572
sS'wood'
p1417
I40
sS'black'
p1418
I59
sS'carolina'
p1419
I49
sS'bridge'
p1420
I11
sS'get'
p1421
I2419
sS'assistant'
p1422
I11
sS'jazz'
p1423
I17
sS'truly'
p1424
I18
sS'nearly'
p1425
I17
sS'gee'
p1426
I52
sS'progress'
p1427
I8
sS'prime'
p1428
I20
sS'regarding'
p1429
I7
sS'aluminum'
p1430
I39
sS'seldom'
p1431
I7
sS'morning'
p1432
I111
sS'miles'
p1433
I117
sS'source'
p1434
I8
sS'worries'
p1435
I8
sS'pants'
p1436
I20
sS'where'
p1437
I1175
sS'husband'
p1438
I325
sS'user'
p1439
I11
sS'honesty'
p1440
I9
sS'unions'
p1441
I9
sS'physically'
p1442
I10
sS'committed'
p1443
I13
sS'comparable'
p1444
I8
sS'relative'
p1445
I11
sS'elected'
p1446
I12
sS'college'
p1447
I270
sS'parking'
p1448
I15
sS'surgery'
p1449
I11
sS'sport'
p1450
I15
sS'wonder'
p1451
I102
sS'voluntary'
p1452
I12
sS'camping'
p1453
I88
sS'ways'
p1454
I83
sS'crawfish'
p1455
I16
sS'review'
p1456
I8
sS'definite'
p1457
I12
sS'weapons'
p1458
I14
sS'outside'
p1459
I149
sS'roots'
p1460
I10
sS'between'
p1461
I132
sS'enjoys'
p1462
I20
sS'reading'
p1463
I119
sS'across'
p1464
I75
sS'fight'
p1465
I23
sS'notice'
p1466
I31
sS'jobs'
p1467
I44
sS'august'
p1468
I24
sS'parent'
p1469
I36
sS'screen'
p1470
I14
sS'killing'
p1471
I21
sS'blame'
p1472
I18
sS'concentrate'
p1473
I10
sS'spare'
p1474
I24
sS'invite'
p1475
I7
sS'hurts'
p1476
I10
sS'article'
p1477
I22
sS'tub'
p1478
I7
sS'cities'
p1479
I45
sS'come'
p1480
I578
sS'recall'
p1481
I11
sS'guitar'
p1482
I10
sS'z'
I7
sS'many'
p1483
I490
sS'region'
p1484
I8
sS'quiet'
p1485
I19
sS'contract'
p1486
I10
sS'personal'
p1487
I69
sS's'
I73
sS'awards'
p1488
I12
sS'traded'
p1489
I11
sS'comes'
p1490
I151
sS'duty'
p1491
I19
sS'among'
p1492
I9
sS'afterwards'
p1493
I9
sS'cancer'
p1494
I14
sS'color'
p1495
I54
sS'effective'
p1496
I13
sS'pot'
p1497
I12
sS'jeans'
p1498
I37
sS'period'
p1499
I61
sS'pop'
p1500
I26
sS'satisfaction'
p1501
I9
sS'twin'
p1502
I9
sS'medication'
p1503
I9
sS'learning'
p1504
I57
sS'boat'
p1505
I36
sS'worthwhile'
p1506
I11
sS'considering'
p1507
I18
sS'unusual'
p1508
I24
sS'grand'
p1509
I18
sS'stripped'
p1510
I7
sS'cares'
p1511
I10
sS'west'
p1512
I58
sS'informed'
p1513
I7
sS'vacation'
p1514
I96
sS'mark'
p1515
I8
sS'cared'
p1516
I10
sS'acre'
p1517
I9
sS'hardly'
p1518
I34
sS'wants'
p1519
I60
sS'metroplex'
p1520
I7
sS'direction'
p1521
I31
sS'educated'
p1522
I19
sS'shopping'
p1523
I24
sS'reaction'
p1524
I7
sS'thousand'
p1525
I162
sS'wake'
p1526
I9
sS'laying'
p1527
I7
sS'careful'
p1528
I32
sS'those'
p1529
I902
sS'pilot'
p1530
I10
sS'case'
p1531
I67
sS'myself'
p1532
I154
sS'turtles'
p1533
I13
sS'these'
p1534
I594
sS'sauce'
p1535
I40
sS'worried'
p1536
I24
sS'cash'
p1537
I35
sS"n't"
p1538
I7602
sS'cast'
p1539
I10
sS'shall'
p1540
I7
sS'newspaper'
p1541
I49
sS'situation'
p1542
I125
sS'mound'
p1543
I9
sS'bathrooms'
p1544
I7
sS'eventually'
p1545
I40
sS'soil'
p1546
I13
sS'metric'
p1547
I38
sS'telephone'
p1548
I22
sS'sleeping'
p1549
I16
sS'couples'
p1550
I13
sS'middle'
p1551
I109
sS'good'
p1552
I1868
sS'minds'
p1553
I8
sS'baths'
p1554
I8
sS'heels'
p1555
I13
sS'motivated'
p1556
I18
sS'technology'
p1557
I24
sS'everyday'
p1558
I31
sS'worry'
p1559
I67
sS'tourist'
p1560
I9
sS'bags'
p1561
I33
sS'different'
p1562
I538
sS'williams'
p1563
I10
sS'develop'
p1564
I17
sS'doctor'
p1565
I38
sS'pay'
p1566
I293
sS'granted'
p1567
I7
sS'bowl'
p1568
I20
sS'tour'
p1569
I15
sS'same'
p1570
I432
sS'check'
p1571
I62
sS'figuring'
p1572
I7
sS'bermuda'
p1573
I11
sS'speech'
p1574
I14
sS'arguments'
p1575
I9
sS'aerobics'
p1576
I60
sS'figures'
p1577
I7
sS'struggling'
p1578
I9
sS'events'
p1579
I19
sS'pan'
p1580
I14
sS'week'
p1581
I277
sS'oil'
p1582
I44
sS'closest'
p1583
I8
sS'socially'
p1584
I7
sS'reunions'
p1585
I15
sS'driver'
p1586
I20
sS'drives'
p1587
I17
sS'weed'
p1588
I11
sS'driven'
p1589
I12
sS'running'
p1590
I93
sS'fruit'
p1591
I11
sS'favorites'
p1592
I13
sS'changing'
p1593
I45
sS'totally'
p1594
I58
sS'tradition'
p1595
I11
sS'drain'
p1596
I10
sS'theater'
p1597
I27
sS'aunts'
p1598
I8
sS'pennsylvania'
p1599
I19
sS'no'
p1600
I1787
sS'bang'
p1601
I8
sS'strawberry'
p1602
I7
sS'eighty-five'
p1603
I12
sS'severe'
p1604
I14
sS'costs'
p1605
I41
sS'solve'
p1606
I21
sS'bottle'
p1607
I9
sS'communications'
p1608
I10
sS'model'
p1609
I14
sS'modem'
p1610
I9
sS'commercials'
p1611
I14
sS'amazed'
p1612
I21
sS'charged'
p1613
I13
sS'summer'
p1614
I164
sS'outdoor'
p1615
I9
sS'being'
p1616
I392
sS'money'
p1617
I444
sS'rest'
p1618
I66
sS'communities'
p1619
I12
sS'violent'
p1620
I23
sS'woodworking'
p1621
I19
sS'kill'
p1622
I47
sS'aspect'
p1623
I23
sS'touch'
p1624
I26
sS'flavor'
p1625
I9
sS'speed'
p1626
I17
sS'halfway'
p1627
I8
sS'blow'
p1628
I18
sS'death'
p1629
I108
sS'liters'
p1630
I8
sS'thinking'
p1631
I161
sS'skied'
p1632
I11
sS'seems'
p1633
I374
sS'except'
p1634
I91
sS'improvement'
p1635
I15
sS'bricks'
p1636
I10
sS'setting'
p1637
I15
sS'treatment'
p1638
I10
sS'emissions'
p1639
I7
sS'plenty'
p1640
I22
sS'republic'
p1641
I8
sS'tuesday'
p1642
I14
sS'real'
p1643
I888
sS'aspects'
p1644
I12
sS'around'
p1645
I621
sS'read'
p1646
I413
sS'handling'
p1647
I9
sS'mow'
p1648
I17
sS'virginia'
p1649
I60
sS'dark'
p1650
I33
sS'warehouse'
p1651
I14
sS'traffic'
p1652
I21
sS'listening'
p1653
I33
sS'using'
p1654
I83
sS'accepted'
p1655
I12
sS'lady'
p1656
I28
sS'furniture'
p1657
I15
sS'meaning'
p1658
I7
sS'pounds'
p1659
I28
sS"'ve"
p1660
I2627
sS'facing'
p1661
I7
sS'chamber'
p1662
I7
sS'benefit'
p1663
I31
sS'either'
p1664
I324
sS'robbery'
p1665
I7
sS'fully'
p1666
I9
sS'served'
p1667
I13
sS'reduced'
p1668
I8
sS'sharp'
p1669
I7
sS'twelve'
p1670
I94
sS'exposed'
p1671
I8
sS'pacific'
p1672
I10
sS'chuck'
p1673
I7
sS'cowboys'
p1674
I47
sS'diving'
p1675
I9
sS'racial'
p1676
I8
sS'thinks'
p1677
I21
sS'gross'
p1678
I8
sS'outs'
p1679
I7
sS'phoenix'
p1680
I11
sS'memories'
p1681
I7
sS'fondue'
p1682
I8
sS'fabulous'
p1683
I12
sS'legal'
p1684
I25
sS'moon'
p1685
I14
sS'dealership'
p1686
I7
sS'deficit'
p1687
I14
sS'turkey'
p1688
I16
sS'felt'
p1689
I87
sS'roast'
p1690
I7
sS'power'
p1691
I63
sS'seconds'
p1692
I10
sS'sixth'
p1693
I12
sS'fitness'
p1694
I18
sS'highly'
p1695
I11
sS'arts'
p1696
I10
sS'tuition'
p1697
I20
sS'broken'
p1698
I22
sS'sixty'
p1699
I47
sS'exciting'
p1700
I29
sS'throw'
p1701
I71
sS'on'
p1702
I3456
sS'jeez'
p1703
I17
sS'central'
p1704
I38
sS'son-in-law'
p1705
I7
sS'oh'
p1706
I4348
sS'of'
p1707
I11503
sS'industry'
p1708
I35
sS'violence'
p1709
I20
sS'favorite'
p1710
I134
sS'factors'
p1711
I10
sS'shrimp'
p1712
I22
sS'chop'
p1713
I12
sS'tremendous'
p1714
I11
sS'fell'
p1715
I18
sS'stand'
p1716
I60
sS'neighbor'
p1717
I16
sS'act'
p1718
I26
sS'mixed'
p1719
I25
sS'luck'
p1720
I37
sS'or'
p1721
I3445
sS'road'
p1722
I50
sS'bitty'
p1723
I10
sS'ladies'
p1724
I8
sS'burning'
p1725
I10
sS'instruments'
p1726
I26
sS'image'
p1727
I7
sS'involvement'
p1728
I7
sS'parties'
p1729
I13
sS'elementary'
p1730
I21
sS'nowadays'
p1731
I41
sS'your'
p1732
I1156
sS'fill'
p1733
I19
sS'her'
p1734
I666
sS'area'
p1735
I402
sS'strictly'
p1736
I12
sS'there'
p1737
I3863
sS'hey'
p1738
I68
sS'meals'
p1739
I22
sS'start'
p1740
I295
sS'cats'
p1741
I100
sS'low'
p1742
I52
sS'lot'
p1743
I2058
sS'dumping'
p1744
I8
sS'valley'
p1745
I12
sS'hysterical'
p1746
I11
sS'energy'
p1747
I23
sS'media'
p1748
I13
sS'mornings'
p1749
I15
sS'complete'
p1750
I20
sS'enough'
p1751
I311
sS'regard'
p1752
I11
sS'pitched'
p1753
I7
sS'trying'
p1754
I360
sS'with'
p1755
I2953
sS'buying'
p1756
I69
sS'longer'
p1757
I64
sS'abused'
p1758
I8
sS'pull'
p1759
I55
sS'hire'
p1760
I15
sS'october'
p1761
I23
sS'applying'
p1762
I7
sS'improved'
p1763
I9
sS'sears'
p1764
I8
sS'potato'
p1765
I11
sS'sacks'
p1766
I7
sS'dirty'
p1767
I16
sS'grass'
p1768
I33
sS'agree'
p1769
I199
sS'strongly'
p1770
I18
sS'gone'
p1771
I200
sS'vehicles'
p1772
I13
sS'videos'
p1773
I13
sS'taste'
p1774
I16
sS'certain'
p1775
I143
sS'moved'
p1776
I149
sS'sales'
p1777
I29
sS'deep'
p1778
I18
sS'general'
p1779
I70
sS'as'
p1780
I2067
sS'at'
p1781
I2274
sS'file'
p1782
I10
sS'hobbies'
p1783
I42
sS'girlfriend'
p1784
I10
sS'watched'
p1785
I63
sS'deterrent'
p1786
I30
sS'horse'
p1787
I12
sS'hospitals'
p1788
I8
sS'blues'
p1789
I8
sS'film'
p1790
I21
sS'cream'
p1791
I22
sS'again'
p1792
I266
sS'bicycling'
p1793
I7
sS'deserve'
p1794
I16
sS'drivers'
p1795
I11
sS'graduate'
p1796
I42
sS'field'
p1797
I62
sS'evenings'
p1798
I10
sS'you'
p1799
I18238
sS'trash'
p1800
I48
sS'pollutants'
p1801
I8
sS'offered'
p1802
I10
sS'poor'
p1803
I37
sS'congress'
p1804
I12
sS'separate'
p1805
I23
sS'students'
p1806
I58
sS'teeth'
p1807
I8
sS'peas'
p1808
I7
sS'gifts'
p1809
I11
sS'walker'
p1810
I8
sS'hardware'
p1811
I7
sS'important'
p1812
I108
sS'massachusetts'
p1813
I14
sS'coverage'
p1814
I22
sS'mechanical'
p1815
I9
sS'pool'
p1816
I45
sS'alcohol'
p1817
I21
sS'building'
p1818
I72
sS'blacks'
p1819
I8
sS'calls'
p1820
I55
sS'wife'
p1821
I172
sS'having'
p1822
I309
sS'u'
I77
sS'missouri'
p1823
I9
sS'overseas'
p1824
I11
sS'songs'
p1825
I17
sS'starting'
p1826
I80
sS'original'
p1827
I27
sS'all'
p1828
I2627
sS'consider'
p1829
I54
sS'chinese'
p1830
I24
sS'caused'
p1831
I13
sS'lack'
p1832
I9
sS'dollar'
p1833
I53
sS'month'
p1834
I143
sS'received'
p1835
I9
sS'concept'
p1836
I21
sS'dish'
p1837
I15
sS'follow'
p1838
I43
sS'faster'
p1839
I15
sS'decisions'
p1840
I21
sS'children'
p1841
I420
sS'causes'
p1842
I9
sS'carpet'
p1843
I13
sS'apartment'
p1844
I60
sS'remarkable'
p1845
I10
sS'hunting'
p1846
I19
sS'tv'
p1847
I8
sS'encourage'
p1848
I17
sS'thursday'
p1849
I14
sS'laughing'
p1850
I9
sS'eighty-four'
p1851
I11
sS'to'
p1852
I15514
sS'tail'
p1853
I12
sS'program'
p1854
I133
sS'-s'
p1855
I39
sS'dressing'
p1856
I8
sS'safety'
p1857
I15
sS'enjoying'
p1858
I19
sS'midwest'
p1859
I12
sS'norm'
p1860
I7
sS'activities'
p1861
I26
sS'scout'
p1862
I7
sS'woman'
p1863
I87
sS'worse'
p1864
I69
sS'sitting'
p1865
I73
sS'very'
p1866
I1093
sS'horror'
p1867
I11
sS'tent'
p1868
I17
sS'fat'
p1869
I13
sS'focus'
p1870
I9
sS'sons'
p1871
I11
sS'fan'
p1872
I73
sS'decide'
p1873
I50
sS'fall'
p1874
I69
sS'awful'
p1875
I79
sS'ticket'
p1876
I7
sS'difference'
p1877
I113
sS'condition'
p1878
I8
sS'steve'
p1879
I7
sS'cable'
p1880
I18
sS'mothers'
p1881
I20
sS'louis'
p1882
I16
sS'list'
p1883
I44
sS'joined'
p1884
I9
sS'grandfather'
p1885
I11
sS'large'
p1886
I87
sS'circuit'
p1887
I8
sS'sand'
p1888
I19
sS'saudi'
p1889
I7
sS'small'
p1890
I182
sS'study'
p1891
I15
sS'neighborhood'
p1892
I73
sS'ten'
p1893
I260
sS'streets'
p1894
I19
sS'tee'
p1895
I9
sS'gorbachev'
p1896
I11
sS'past'
p1897
I94
sS'winds'
p1898
I8
sS'rate'
p1899
I53
sS'design'
p1900
I23
sS'perspective'
p1901
I20
sS'lawyer'
p1902
I10
sS'pass'
p1903
I22
sS'further'
p1904
I23
sS'casual'
p1905
I19
sS'jesus'
p1906
I7
sS'trick'
p1907
I8
sS'what'
p1908
I3548
sS'golfer'
p1909
I7
sS'richard'
p1910
I8
sS'clock'
p1911
I12
sS'sun'
p1912
I20
sS'section'
p1913
I16
sS'rascal'
p1914
I7
sS'brief'
p1915
I7
sS'crush'
p1916
I7
sS'version'
p1917
I14
sS'barbecue'
p1918
I13
sS'learned'
p1919
I51
sS'public'
p1920
I158
sS'handy'
p1921
I22
sS'full'
p1922
I113
sS'christian'
p1923
I13
sS'loose'
p1924
I23
sS'supposedly'
p1925
I45
sS'hours'
p1926
I111
sS'ranger'
p1927
I7
sS'directions'
p1928
I8
sS'november'
p1929
I9
sS'strong'
p1930
I41
sS'table'
p1931
I26
sS'stepfather'
p1932
I7
sS'bible'
p1933
I28
sS'colored'
p1934
I7
sS'ahead'
p1935
I113
sS'cornstarch'
p1936
I12
sS'vegetarian'
p1937
I8
sS'experience'
p1938
I88
sS'fired'
p1939
I9
sS'prior'
p1940
I15
sS'amount'
p1941
I94
sS'lasagna'
p1942
I14
sS'advertising'
p1943
I10
sS'pick'
p1944
I118
sS'action'
p1945
I20
sS'chain'
p1946
I7
sS'options'
p1947
I13
sS'cup'
p1948
I7
sS'family'
p1949
I404
sS'buses'
p1950
I10
sS'suddenly'
p1951
I9
sS'africa'
p1952
I20
sS'put'
p1953
I655
sS'semester'
p1954
I26
sS'trained'
p1955
I14
sS'toys'
p1956
I9
sS'hooked'
p1957
I10
sS'gosh'
p1958
I181
sS'armed'
p1959
I7
sS'eye'
p1960
I20
sS'takes'
p1961
I118
sS'intense'
p1962
I7
sS'knit'
p1963
I7
sS'two'
p1964
I998
sS'pitching'
p1965
I10
sS'gorgeous'
p1966
I24
sS'taken'
p1967
I93
sS'kick'
p1968
I11
sS'minor'
p1969
I12
sS'more'
p1970
I1375
sS'horses'
p1971
I11
sS'flat'
p1972
I29
sS'israel'
p1973
I21
sS'door'
p1974
I88
sS'knows'
p1975
I64
sS'incentive'
p1976
I9
sS'division'
p1977
I9
sS'company'
p1978
I119
sS'tested'
p1979
I43
sS'basically'
p1980
I161
sS'broke'
p1981
I20
sS'particular'
p1982
I68
sS'bye-bye'
p1983
I171
sS'hurry'
p1984
I9
sS'nineteen'
p1985
I67
sS'glad'
p1986
I69
sS'town'
p1987
I145
sS'grill'
p1988
I16
sS'keeping'
p1989
I41
sS'hour'
p1990
I113
sS'science'
p1991
I47
sS'routine'
p1992
I8
sS'mall'
p1993
I13
sS'sudden'
p1994
I28
sS'nine'
p1995
I104
sS'resources'
p1996
I11
sS'v'
I198
sS'male'
p1997
I17
sS'needlepoint'
p1998
I10
sS'history'
p1999
I39
sS'beautiful'
p2000
I70
sS'compare'
p2001
I24
sS'practical'
p2002
I8
sS'brown'
p2003
I33
sS'lives'
p2004
I93
sS'share'
p2005
I30
sS'accept'
p2006
I9
sS'states'
p2007
I93
sS'wal-mart'
p2008
I22
sS'minimum'
p2009
I12
sS'numbers'
p2010
I32
sS'purchased'
p2011
I11
sS'sense'
p2012
I89
sS'station'
p2013
I28
sS'dress'
p2014
I86
sS'reputation'
p2015
I8
sS'information'
p2016
I60
sS'needs'
p2017
I94
sS'court'
p2018
I34
sS'goal'
p2019
I8
sS'rather'
p2020
I140
sS'breaking'
p2021
I15
sS'stayed'
p2022
I54
sS'stitch'
p2023
I10
sS'occasionally'
p2024
I40
sS'plant'
p2025
I51
sS'okay'
p2026
I1419
sS'tried'
p2027
I147
sS'advice'
p2028
I20
sS'scouts'
p2029
I27
sS'tries'
p2030
I12
sS'plane'
p2031
I8
sS'blood'
p2032
I25
sS'coming'
p2033
I191
sS'invasion'
p2034
I28
sS'bloom'
p2035
I11
sS'a'
I15238
sS'short'
p2036
I66
sS'crowded'
p2037
I9
sS'coat'
p2038
I13
sS'register'
p2039
I10
sS'bugs'
p2040
I24
sS'anytime'
p2041
I11
sS'throws'
p2042
I7
sS'coal'
p2043
I12
sS'shore'
p2044
I7
sS'responsibility'
p2045
I33
sS'crafts'
p2046
I19
sS'pleasure'
p2047
I16
sS'dream'
p2048
I8
sS'playing'
p2049
I67
sS'patio'
p2050
I7
sS'infant'
p2051
I7
sS'mexican'
p2052
I19
sS'help'
p2053
I185
sS'september'
p2054
I9
sS'developed'
p2055
I22
sS'soon'
p2056
I78
sS'trade'
p2057
I34
sS'held'
p2058
I15
sS'attitude'
p2059
I41
sS'paper'
p2060
I172
sS'through'
p2061
I422
sS'signs'
p2062
I21
sS'hell'
p2063
I14
sS'its'
p2064
I50
sS'humid'
p2065
I22
sS'messed'
p2066
I10
sS'style'
p2067
I28
sS'border'
p2068
I21
sS'actually'
p2069
I468
sS'late'
p2070
I90
sS'parts'
p2071
I62
sS'systems'
p2072
I45
sS'stephen'
p2073
I8
sS'argentina'
p2074
I13
sS'governments'
p2075
I8
sS'might'
p2076
I280
sS'hurting'
p2077
I16
sS'evening'
p2078
I37
sS'somebody'
p2079
I301
sS'food'
p2080
I92
sS'largest'
p2081
I7
sS'hunter'
p2082
I13
sS'units'
p2083
I7
sS'walls'
p2084
I15
sS'foot'
p2085
I37
sS'ninja'
p2086
I7
sS'complain'
p2087
I14
sS'bigger'
p2088
I57
sS'mystery'
p2089
I11
sS'easily'
p2090
I36
sS'pregnant'
p2091
I21
sS'always'
p2092
I617
sS'policeman'
p2093
I12
sS'bless'
p2094
I8
sS'courses'
p2095
I17
sS'someone'
p2096
I219
sS'stopped'
p2097
I32
sS'turns'
p2098
I31
sS'found'
p2099
I157
sS'heavy'
p2100
I48
sS'everyone'
p2101
I118
sS'england'
p2102
I36
sS'mental'
p2103
I14
sS'weight'
p2104
I39
sS'generation'
p2105
I56
sS'house'
p2106
I430
sS'fish'
p2107
I103
sS'hard'
p2108
I365
sS'idea'
p2109
I207
sS'brother'
p2110
I65
sS'extended'
p2111
I19
sS'expect'
p2112
I45
sS'quantum'
p2113
I8
sS'portland'
p2114
I9
sS'beyond'
p2115
I24
sS'insurance'
p2116
I54
sS'really'
p2117
I3427
sS'flower'
p2118
I29
sS'funding'
p2119
I14
sS'missed'
p2120
I29
sS'wondered'
p2121
I18
sS'item'
p2122
I7
sS'robert'
p2123
I7
sS'since'
p2124
I247
sS'discouraging'
p2125
I7
sS'research'
p2126
I44
sS'acting'
p2127
I8
sS'health'
p2128
I79
sS'hill'
p2129
I21
sS'print'
p2130
I15
sS'issue'
p2131
I41
sS'highway'
p2132
I29
sS'uh-huh'
p2133
I6360
sS'reporting'
p2134
I9
sS'wisconsin'
p2135
I24
sS'bass'
p2136
I10
sS'dirt'
p2137
I18
sS'disagree'
p2138
I8
sS'friday'
p2139
I20
sS'story'
p2140
I100
sS'bulls'
p2141
I8
sS'pleasant'
p2142
I12
sS'houses'
p2143
I66
sS'reason'
p2144
I135
sS'base'
p2145
I56
sS'conditioning'
p2146
I9
sS'members'
p2147
I12
sS'imagine'
p2148
I100
sS'ask'
p2149
I69
sS'teach'
p2150
I101
sS'beginning'
p2151
I52
sS'generate'
p2152
I12
sS'thrown'
p2153
I14
sS'director'
p2154
I10
sS'golly'
p2155
I12
sS'benefits'
p2156
I36
sS'deer'
p2157
I7
sS'computers'
p2158
I41
sS'terrible'
p2159
I59
sS'terribly'
p2160
I14
sS'american'
p2161
I79
sS'expecting'
p2162
I11
sS'threat'
p2163
I25
sS'twenty'
p2164
I164
sS'testament'
p2165
I7
sS'lawsuits'
p2166
I7
sS'feed'
p2167
I13
sS'cetera'
p2168
I15
sS'major'
p2169
I105
sS'prevent'
p2170
I7
sS'feel'
p2171
I442
sS'relate'
p2172
I12
sS'number'
p2173
I142
sS'fancy'
p2174
I17
sS'traveled'
p2175
I11
sS'feet'
p2176
I52
sS'dust'
p2177
I12
sS'revolution'
p2178
I9
sS'done'
p2179
I443
sS'fees'
p2180
I9
sS'cups'
p2181
I8
sS'miss'
p2182
I51
sS'guess'
p2183
I1276
sS'temperature'
p2184
I16
sS'boating'
p2185
I8
sS'gourmet'
p2186
I10
sS'arlington'
p2187
I33
sS'tougher'
p2188
I8
sS'least'
p2189
I235
sS'player'
p2190
I16
sS'paint'
p2191
I74
sS'wonderful'
p2192
I208
sS'saint'
p2193
I30
sS'rates'
p2194
I15
sS'hundred'
p2195
I311
sS'store'
p2196
I72
sS'eighty-two'
p2197
I8
sS'selling'
p2198
I42
sS'passed'
p2199
I23
sS'relationship'
p2200
I13
sS'behind'
p2201
I52
sS'park'
p2202
I50
sS'immediate'
p2203
I14
sS'luckily'
p2204
I11
sS'part'
p2205
I331
sS'doctors'
p2206
I14
sS'believe'
p2207
I237
sS'convinced'
p2208
I12
sS'forty-eight'
p2209
I13
sS'king'
p2210
I14
sS'grocery'
p2211
I28
sS'b'
I133
sS'gotten'
p2212
I161
sS'recording'
p2213
I19
sS'charges'
p2214
I7
sS'marriage'
p2215
I7
sS'supposed'
p2216
I179
sS'outdoors'
p2217
I7
sS'toward'
p2218
I24
sS'treated'
p2219
I7
sS'kilometers'
p2220
I10
sS'dried'
p2221
I12
sS'sentenced'
p2222
I17
sS'charlotte'
p2223
I7
sS'motivation'
p2224
I9
sS'ranch'
p2225
I8
sS'uncomfortable'
p2226
I7
sS'texans'
p2227
I7
sS'ages'
p2228
I21
sS'muscles'
p2229
I10
sS'cleaned'
p2230
I9
sS'option'
p2231
I17
sS'sell'
p2232
I63
sS'mountain'
p2233
I11
sS'nights'
p2234
I39
sS'built'
p2235
I86
sS'zero'
p2236
I7
sS'depending'
p2237
I29
sS'self'
p2238
I25
sS'officers'
p2239
I7
sS'also'
p2240
I386
sS'without'
p2241
I116
sS'build'
p2242
I48
sS'finding'
p2243
I39
sS'play'
p2244
I230
sS'towards'
p2245
I36
sS'electric'
p2246
I8
sS'dayton'
p2247
I8
sS'quote'
p2248
I14
sS'flute'
p2249
I11
sS'reach'
p2250
I12
sS'most'
p2251
I435
sS'hired'
p2252
I18
sS'experiences'
p2253
I12
sS'plan'
p2254
I57
sS'significant'
p2255
I20
sS'nothing'
p2256
I132
sS'seasons'
p2257
I13
sS'extremely'
p2258
I30
sS'refrigerator'
p2259
I11
sS'salary'
p2260
I21
sS'dealers'
p2261
I16
sS'windows'
p2262
I28
sS'clear'
p2263
I19
sS'sometimes'
p2264
I318
sS'cover'
p2265
I34
sS'drawing'
p2266
I8
sS'traditional'
p2267
I15
sS'part-time'
p2268
I12
sS'funded'
p2269
I8
sS'clean'
p2270
I59
sS'filmed'
p2271
I7
sS'ugh'
p2272
I15
sS'golf'
p2273
I64
sS'gold'
p2274
I9
sS'cruises'
p2275
I7
sS'scattered'
p2276
I9
sS'aikman'
p2277
I7
sS'businesses'
p2278
I12
sS'headlines'
p2279
I8
sS'fine'
p2280
I88
sS'find'
p2281
I350
sS'costing'
p2282
I7
sS'impact'
p2283
I15
sS'cried'
p2284
I7
sS'northern'
p2285
I30
sS'justice'
p2286
I10
sS'nervous'
p2287
I11
sS'writer'
p2288
I15
sS'penalty'
p2289
I47
sS'cassette'
p2290
I8
sS'pretty'
p2291
I830
sS'factor'
p2292
I19
sS'accurate'
p2293
I7
sS'discuss'
p2294
I18
sS'shepherd'
p2295
I11
sS'his'
p2296
I492
sS'hit'
p2297
I80
sS'dependent'
p2298
I9
sS'express'
p2299
I29
sS'sunny'
p2300
I9
sS'kind'
p2301
I1711
sS'trees'
p2302
I80
sS'cheaper'
p2303
I25
sS'blank'
p2304
I7
sS'famous'
p2305
I9
sS'feels'
p2306
I24
sS'grew'
p2307
I87
sS'longest'
p2308
I8
sS'theft'
p2309
I7
sS'basement'
p2310
I10
sS'during'
p2311
I158
sS'frightening'
p2312
I25
sS'him'
p2313
I551
sS'forty-five'
p2314
I16
sS'enemy'
p2315
I8
sS'roles'
p2316
I21
sS'recycled'
p2317
I12
sS'cry'
p2318
I11
sS'remove'
p2319
I8
sS'common'
p2320
I26
sS'double'
p2321
I23
sS'x'
I29
sS'river'
p2322
I25
sS'employer'
p2323
I7
sS'wrote'
p2324
I31
sS'fishing'
p2325
I50
sS'sew'
p2326
I8
sS'scenery'
p2327
I10
sS'seventeen'
p2328
I25
sS'set'
p2329
I110
sS'art'
p2330
I12
sS'dump'
p2331
I24
sS'throwing'
p2332
I13
sS'sex'
p2333
I15
sS'culture'
p2334
I9
sS'see'
p2335
I1465
sS'defense'
p2336
I31
sS'dumb'
p2337
I9
sS'are'
p2338
I3016
sS'sea'
p2339
I7
sS'fellow'
p2340
I10
sS'close'
p2341
I136
sS'arm'
p2342
I13
sS'shower'
p2343
I17
sS'practice'
p2344
I13
sS'expert'
p2345
I9
sS'visiting'
p2346
I14
sS'movie'
p2347
I262
sS'wow'
p2348
I190
sS'currently'
p2349
I13
sS'please'
p2350
I14
sS'fans'
p2351
I14
sS'won'
p2352
I42
sS'various'
p2353
I29
sS'ninety-nine'
p2354
I11
sS'probably'
p2355
I875
sS'nope'
p2356
I10
sS'meal'
p2357
I16
sS'available'
p2358
I39
sS'latin'
p2359
I11
sS'recently'
p2360
I118
sS'historical'
p2361
I7
sS'missing'
p2362
I15
sS'sold'
p2363
I35
sS'attention'
p2364
I54
sS'spray'
p2365
I12
sS'coffee'
p2366
I7
sS'legislature'
p2367
I7
sS'both'
p2368
I246
sS'c'
I207
sS'last'
p2369
I541
sS'reverse'
p2370
I8
sS'license'
p2371
I18
sS'restaurant'
p2372
I35
sS'barely'
p2373
I16
sS'foreign'
p2374
I17
sS'mcdonald'
p2375
I9
sS'connection'
p2376
I12
sS'became'
p2377
I31
sS'dana'
p2378
I7
sS'forgotten'
p2379
I7
sS'bond'
p2380
I7
sS'whole'
p2381
I389
sS'finds'
p2382
I7
sS'baltimore'
p2383
I48
sS'millions'
p2384
I9
sS'liked'
p2385
I105
sS'yards'
p2386
I13
sS'point'
p2387
I210
sS'simple'
p2388
I28
sS'sweet'
p2389
I19
sS'loan'
p2390
I14
sS'recycling'
p2391
I91
sS'community'
p2392
I51
sS'dances'
p2393
I23
sS'tennessee'
p2394
I9
sS'simply'
p2395
I30
sS'likes'
p2396
I72
sS'church'
p2397
I55
sS'throughout'
p2398
I10
sS'mission'
p2399
I8
sS'expensive'
p2400
I104
sS'belt'
p2401
I15
sS'finally'
p2402
I88
sS'raise'
p2403
I37
sS'shingles'
p2404
I7
sS'monthly'
p2405
I13
sS'political'
p2406
I24
sS'due'
p2407
I14
sS'dug'
p2408
I7
sS'convicted'
p2409
I24
sS'secret'
p2410
I10
sS'complicated'
p2411
I19
sS'maintenance'
p2412
I11
sS'peppers'
p2413
I9
sS'brick'
p2414
I28
sS'territory'
p2415
I8
sS'meeting'
p2416
I22
sS'twenty-eight'
p2417
I13
sS'empty'
p2418
I9
sS'addison'
p2419
I11
sS'lived'
p2420
I175
sS'partly'
p2421
I8
sS'sending'
p2422
I16
sS'fire'
p2423
I34
sS'citizen'
p2424
I12
sS'gas'
p2425
I39
sS'convert'
p2426
I11
sS'else'
p2427
I333
sS'fund'
p2428
I17
sS'understand'
p2429
I200
sS'specifically'
p2430
I11
sS'demand'
p2431
I10
sS'prices'
p2432
I39
sS'towns'
p2433
I12
sS'instructor'
p2434
I13
sS'plants'
p2435
I44
sS'georgia'
p2436
I12
sS'look'
p2437
I348
sS'solid'
p2438
I12
sS'judicial'
p2439
I9
sS'straight'
p2440
I28
sS'bill'
p2441
I39
sS'budget'
p2442
I68
sS'governor'
p2443
I10
sS'sesame'
p2444
I14
sS'technical'
p2445
I10
sS'while'
p2446
I317
sS'smart'
p2447
I24
sS'behavior'
p2448
I10
sS'fun'
p2449
I293
sS'biking'
p2450
I14
sS'guide'
p2451
I12
sS'engineers'
p2452
I10
sS'styles'
p2453
I10
sS'pound'
p2454
I16
sS'hoping'
p2455
I34
sS'voters'
p2456
I11
sS'cents'
p2457
I26
sS'wherever'
p2458
I13
sS'sentences'
p2459
I8
sS'motors'
p2460
I10
sS'stations'
p2461
I15
sS'itself'
p2462
I59
sS'ready'
p2463
I83
sS'rid'
p2464
I56
sS'rib'
p2465
I10
sS'funny'
p2466
I172
sS'shirt'
p2467
I16
sS'anymore'
p2468
I111
sS'james'
p2469
I14
sS'belong'
p2470
I15
sS'rules'
p2471
I9
sS'delicious'
p2472
I11
sS'virtually'
p2473
I8
sS'eighty-six'
p2474
I29
sS'pepper'
p2475
I7
sS'survey'
p2476
I11
sS'dozen'
p2477
I8
sS'daughters'
p2478
I17
sS'higher'
p2479
I56
sS'development'
p2480
I14
sS'used'
p2481
I568
sS'lawyers'
p2482
I17
sS'lie'
p2483
I9
sS'yesterday'
p2484
I39
sS'holidays'
p2485
I11
sS'husbands'
p2486
I12
sS'moment'
p2487
I28
sS'levels'
p2488
I15
sS'moving'
p2489
I42
sS'purpose'
p2490
I22
sS'necessity'
p2491
I11
sS'yeltsin'
p2492
I7
sS'bob'
p2493
I8
sS'loaded'
p2494
I7
sS'recent'
p2495
I21
sS'early'
p2496
I84
sS'lower'
p2497
I39
sS'task'
p2498
I12
sS'older'
p2499
I127
sS'spent'
p2500
I74
sS'obviously'
p2501
I42
sS'person'
p2502
I221
sS'edge'
p2503
I28
sS'flags'
p2504
I7
sS'thoroughly'
p2505
I9
sS'y'
I22
sS'organization'
p2506
I22
sS'spend'
p2507
I176
sS'know'
p2508
I9889
sS'vice'
p2509
I8
sS'chore'
p2510
I8
sS'mom'
p2511
I86
sS'quarters'
p2512
I7
sS'product'
p2513
I14
sS'shape'
p2514
I40
sS'questions'
p2515
I22
sS'world'
p2516
I164
sS'retired'
p2517
I31
sS'alternative'
p2518
I11
sS'discipline'
p2519
I24
sS'cut'
p2520
I107
sS'hiking'
p2521
I8
sS'majority'
p2522
I25
sS'disappointed'
p2523
I16
sS'workers'
p2524
I8
sS'alternate'
p2525
I7
sS'exercising'
p2526
I15
sS'rangers'
p2527
I41
sS'internal'
p2528
I12
sS'parents'
p2529
I222
sS'location'
p2530
I15
sS'excited'
p2531
I18
sS'surprised'
p2532
I33
sS'bin'
p2533
I11
sS'waves'
p2534
I9
sS'customers'
p2535
I8
sS'australia'
p2536
I7
sS'march'
p2537
I16
sS'forces'
p2538
I8
sS'emergency'
p2539
I9
sS'big'
p2540
I579
sS'couple'
p2541
I313
sS'lincoln'
p2542
I7
sS'wives'
p2543
I7
sS'aggravating'
p2544
I8
sS'game'
p2545
I117
sS'bit'
p2546
I465
sS'projects'
p2547
I20
sS'helpful'
p2548
I16
sS'knock'
p2549
I18
sS'd'
I92
sS'marvelous'
p2550
I16
sS'message'
p2551
I19
sS'day-care'
p2552
I15
sS'collect'
p2553
I14
sS'continue'
p2554
I28
sS'popular'
p2555
I20
sS'gardening'
p2556
I44
sS'often'
p2557
I120
sS'brakes'
p2558
I7
sS'absolutely'
p2559
I116
sS'spring'
p2560
I79
sS'some'
p2561
I1802
sS'back'
p2562
I877
sS'understood'
p2563
I12
sS'litter'
p2564
I9
sS'economic'
p2565
I22
sS'fabric'
p2566
I7
sS'sight'
p2567
I11
sS'curious'
p2568
I17
sS'mustang'
p2569
I11
sS'ourselves'
p2570
I24
sS'godfather'
p2571
I8
sS'delivered'
p2572
I9
sS'scale'
p2573
I10
sS'pet'
p2574
I30
sS'singing'
p2575
I9
sS'decision'
p2576
I38
sS'thanksgiving'
p2577
I8
sS'audience'
p2578
I7
sS'per'
p2579
I61
sS'religion'
p2580
I11
sS'behave'
p2581
I8
sS'eliminate'
p2582
I12
sS'tends'
p2583
I12
sS'invade'
p2584
I7
sS't'
I430
sS'be'
p2585
I2962
sS'sixteen'
p2586
I36
sS'eating'
p2587
I31
sS'processing'
p2588
I19
sS'lakes'
p2589
I24
sS'step'
p2590
I38
sS'nowhere'
p2591
I7
sS'by'
p2592
I606
sS'handled'
p2593
I9
sS'wildlife'
p2594
I7
sS'goods'
p2595
I12
sS'anything'
p2596
I553
sS'wore'
p2597
I11
sS'lord'
p2598
I20
sS'truck'
p2599
I27
sS'range'
p2600
I18
sS'beans'
p2601
I12
sS'mouth'
p2602
I9
sS'block'
p2603
I19
sS'pollution'
p2604
I73
sS'seeing'
p2605
I69
sS'david'
p2606
I9
sS'jimmy'
p2607
I11
sS'colorado'
p2608
I45
sS'garbage'
p2609
I33
sS'into'
p2610
I701
sS'within'
p2611
I54
sS'services'
p2612
I18
sS'appropriate'
p2613
I11
sS'primarily'
p2614
I11
sS'oaks'
p2615
I12
sS'lesson'
p2616
I9
sS'france'
p2617
I25
sS'lewisville'
p2618
I15
sS'rolls'
p2619
I11
sS'unfair'
p2620
I9
sS'impressed'
p2621
I17
sS'statistics'
p2622
I15
sS'eleven'
p2623
I47
sS'spending'
p2624
I55
sS'question'
p2625
I94
sS'fast'
p2626
I50
sS'indoor'
p2627
I8
sS'summertime'
p2628
I15
sS'suit'
p2629
I31
sS'forward'
p2630
I31
sS'bored'
p2631
I7
sS'mountains'
p2632
I41
sS'himself'
p2633
I49
sS'ireland'
p2634
I8
sS'inches'
p2635
I38
sS'jewish'
p2636
I9
sS'registered'
p2637
I16
sS'criteria'
p2638
I9
sS'immigration'
p2639
I13
sS'boys'
p2640
I62
sS'deductions'
p2641
I10
sS'properly'
p2642
I13
sS'atlantic'
p2643
I8
sS'library'
p2644
I13
sS'newer'
p2645
I16
sS'switchboard'
p2646
I10
sS'russian'
p2647
I10
sS'line'
p2648
I98
sS'junior'
p2649
I42
sS'raising'
p2650
I25
sS'directed'
p2651
I8
sS'up'
p2652
I2035
sS'us'
p2653
I416
sS'um'
p2654
I3360
sS'mobile'
p2655
I7
sS"'re"
p2656
I3354
sS'uh'
p2657
I13337
sS'mature'
p2658
I9
sS'fried'
p2659
I7
sS'similar'
p2660
I45
sS'called'
p2661
I211
sS'bell'
p2662
I11
sS'supervisor'
p2663
I15
sS'adults'
p2664
I16
sS'metal'
p2665
I20
sS'influence'
p2666
I17
sS'package'
p2667
I19
sS'single'
p2668
I55
sS'cure'
p2669
I7
sS'home'
p2670
I776
sS'cafe'
p2671
I16
sS'hail'
p2672
I11
sS'rainy'
p2673
I9
sS'lemon'
p2674
I9
sS'rains'
p2675
I16
sS'fixing'
p2676
I13
sS'peace'
p2677
I42
sS'club'
p2678
I40
sS'politicians'
p2679
I15
sS'points'
p2680
I24
sS'electrical'
p2681
I8
sS'income'
p2682
I48
sS'department'
p2683
I33
sS'aunt'
p2684
I8
sS'mayonnaise'
p2685
I8
sS'nice'
p2686
I619
sS'draw'
p2687
I13
sS'kansas'
p2688
I12
sS'problems'
p2689
I178
sS'occurred'
p2690
I11
sS'helping'
p2691
I35
sS'drag'
p2692
I9
sS'formal'
p2693
I15
sS'score'
p2694
I10
sS'desert'
p2695
I23
sS'structure'
p2696
I12
sS'mood'
p2697
I9
sS'ago'
p2698
I343
sS'land'
p2699
I30
sS'e'
I68
sS'practically'
p2700
I18
sS'age'
p2701
I103
sS'required'
p2702
I18
sS'holes'
p2703
I9
sS'walked'
p2704
I19
sS'cooked'
p2705
I11
sS'carrying'
p2706
I9
sS'weights'
p2707
I22
sS'worn'
p2708
I7
sS'far'
p2709
I370
sS'fresh'
p2710
I14
sS'inevitably'
p2711
I7
sS'buffalo'
p2712
I30
sS'hello'
p2713
I35
sS'once'
p2714
I278
sS'code'
p2715
I20
sS'evidence'
p2716
I10
sS'scratch'
p2717
I9
sS'secretary'
p2718
I9
sS'wordperfect'
p2719
I8
sS'results'
p2720
I13
sS'enjoyable'
p2721
I24
sS'gang'
p2722
I7
sS'go'
p2723
I1908
sS'particularly'
p2724
I72
sS'conservative'
p2725
I10
sS'centers'
p2726
I21
sS'issues'
p2727
I34
sS'seemed'
p2728
I64
sS'volleyball'
p2729
I9
sS'concerned'
p2730
I77
sS'young'
p2731
I154
sS'send'
p2732
I69
sS'suits'
p2733
I16
sS'languages'
p2734
I9
sS'helps'
p2735
I49
sS'maryland'
p2736
I32
sS'subscription'
p2737
I8
sS'friendly'
p2738
I7
sS'sent'
p2739
I44
sS'queen'
p2740
I9
sS'garden'
p2741
I57
sS'dessert'
p2742
I14
sS'bedrooms'
p2743
I23
sS'conditions'
p2744
I9
sS'wave'
p2745
I7
sS'putting'
p2746
I68
sS'telling'
p2747
I50
sS'entire'
p2748
I38
sS'recreation'
p2749
I7
sS'magic'
p2750
I11
sS'positions'
p2751
I8
sS'marry'
p2752
I7
sS'shock'
p2753
I7
sS'michael'
p2754
I10
sS'ryan'
p2755
I13
sS'try'
p2756
I385
sS'huh-uh'
p2757
I183
sS'race'
p2758
I11
sS'dealt'
p2759
I8
sS'challenge'
p2760
I11
sS'someday'
p2761
I11
sS'smaller'
p2762
I37
sS'carter'
p2763
I8
sS'protect'
p2764
I11
sS'seventies'
p2765
I40
sS'ham'
p2766
I7
sS'jump'
p2767
I19
sS'blowing'
p2768
I11
sS'video'
p2769
I46
sS'traveling'
p2770
I24
sS'picked'
p2771
I49
sS'reunion'
p2772
I39
sS'acid'
p2773
I24
sS'odd'
p2774
I18
sS'graduating'
p2775
I10
sS'reviews'
p2776
I7
sS'plays'
p2777
I25
sS'business'
p2778
I123
sS'chicago'
p2779
I24
sS'giving'
p2780
I46
sS'slight'
p2781
I9
sS'networks'
p2782
I8
sS'access'
p2783
I16
sS'paying'
p2784
I109
sS'waiting'
p2785
I56
sS'indian'
p2786
I10
sS'twins'
p2787
I9
sS'capital'
p2788
I68
sS'ammunition'
p2789
I7
sS'bird'
p2790
I21
sS'exercise'
p2791
I125
sS'body'
p2792
I27
sS'chose'
p2793
I7
sS'degree'
p2794
I80
sS'leg'
p2795
I9
sS'pushing'
p2796
I17
sS'commercial'
p2797
I13
sS'youngest'
p2798
I21
sS'following'
p2799
I9
sS'bachelor'
p2800
I13
sS'northeast'
p2801
I8
sS'let'
p2802
I469
sS'others'
p2803
I43
sS'sing'
p2804
I13
sS'safer'
p2805
I7
sS'fifteen'
p2806
I113
sS'extreme'
p2807
I18
sS'great'
p2808
I507
sS'enid'
p2809
I9
sS'receive'
p2810
I15
sS'involved'
p2811
I129
sS'larger'
p2812
I25
sS'leaving'
p2813
I22
sS'engine'
p2814
I21
sS'products'
p2815
I19
sS'cousins'
p2816
I13
sS'popcorn'
p2817
I7
sS'opinion'
p2818
I42
sS'makes'
p2819
I191
sS'explain'
p2820
I12
sS'involves'
p2821
I7
sS'named'
p2822
I17
sS'apple'
p2823
I9
sS'claim'
p2824
I7
sS'win'
p2825
I20
sS'juries'
p2826
I17
sS'manage'
p2827
I15
sS'dedicated'
p2828
I8
sS'private'
p2829
I73
sS'standpoint'
p2830
I10
sS'names'
p2831
I26
sS'motor'
p2832
I10
sS'apply'
p2833
I10
sS'ninth'
p2834
I8
sS'sugar'
p2835
I8
sS'route'
p2836
I17
sS'standing'
p2837
I20
sS'use'
p2838
I437
sS'fee'
p2839
I14
sS'from'
p2840
I1436
sS'illegal'
p2841
I9
sS'theme'
p2842
I7
sS'next'
p2843
I230
sS'few'
p2844
I321
sS'doubt'
p2845
I40
sS'crab'
p2846
I8
sS'toy'
p2847
I7
sS'themselves'
p2848
I68
sS'expressway'
p2849
I7
sS'dreams'
p2850
I7
sS'automobile'
p2851
I17
sS'sort'
p2852
I403
sS'bureaucracy'
p2853
I13
sS'porch'
p2854
I14
sS'started'
p2855
I305
sS'becomes'
p2856
I23
sS'tons'
p2857
I9
sS'about'
p2858
I2628
sS'improve'
p2859
I14
sS'train'
p2860
I34
sS'baby'
p2861
I85
sS'women'
p2862
I203
sS'customer'
p2863
I14
sS'account'
p2864
I16
sS'darned'
p2865
I7
sS'animals'
p2866
I26
sS'salad'
p2867
I36
sS'f'
I34
sS'this'
p2868
I2277
sS'ride'
p2869
I49
sS'when'
p2870
I2187
sS'pour'
p2871
I14
sS'recession'
p2872
I11
sS'anywhere'
p2873
I57
sS'snowing'
p2874
I7
sS'island'
p2875
I8
sS'industrial'
p2876
I8
sS'meet'
p2877
I36
sS'bend'
p2878
I7
sS'control'
p2879
I95
sS'mowing'
p2880
I9
sS'process'
p2881
I43
sS'discussed'
p2882
I8
sS'tax'
p2883
I96
sS'pieces'
p2884
I21
sS'high'
p2885
I320
sS'professor'
p2886
I12
sS'application'
p2887
I7
sS'pulling'
p2888
I18
sS'something'
p2889
I1312
sS'triangle'
p2890
I8
sS'voice'
p2891
I23
sS'skirt'
p2892
I16
sS'rape'
p2893
I14
sS'native'
p2894
I12
sS'summers'
p2895
I15
sS'educational'
p2896
I19
sS'united'
p2897
I58
sS'varied'
p2898
I7
sS'democracy'
p2899
I12
sS'sit'
p2900
I125
sS'onions'
p2901
I12
sS'six'
p2902
I260
sS'hampshire'
p2903
I12
sS'fortunate'
p2904
I24
sS'brian'
p2905
I8
sS'forest'
p2906
I8
sS'animal'
p2907
I11
sS'instead'
p2908
I94
sS'comedy'
p2909
I17
sS'intelligent'
p2910
I10
sS'sin'
p2911
I8
sS'typewriter'
p2912
I10
sS'buildings'
p2913
I15
sS'de'
p2914
I9
sS'blocks'
p2915
I13
sS'attend'
p2916
I7
sS'farm'
p2917
I30
sS'watch'
p2918
I311
sS'wallpaper'
p2919
I18
sS'hyacinths'
p2920
I7
sS'collection'
p2921
I12
sS'bothered'
p2922
I14
sS'abuse'
p2923
I10
sS'hose'
p2924
I9
sS'taco'
p2925
I7
sS'engineering'
p2926
I32
sS'tomato'
p2927
I9
sS'realized'
p2928
I19
sS'owns'
p2929
I8
sS'jails'
p2930
I7
sS'light'
p2931
I52
sS'pansies'
p2932
I7
sS'lines'
p2933
I24
sS'honestly'
p2934
I14
sS'allow'
p2935
I26
sS'software'
p2936
I17
sS'bins'
p2937
I19
sS'houston'
p2938
I61
sS'move'
p2939
I67
sS'including'
p2940
I9
sS'looks'
p2941
I97
sS'cruise'
p2942
I16
sS'mentioned'
p2943
I19
sS'compatible'
p2944
I8
sS'bunch'
p2945
I74
sS'perfect'
p2946
I25
sS'chemical'
p2947
I13
sS'located'
p2948
I8
sS'chosen'
p2949
I7
sS'unreal'
p2950
I7
sS'labor'
p2951
I20
sS'kindergarten'
p2952
I20
sS'willing'
p2953
I43
sS'degrees'
p2954
I46
sS'choose'
p2955
I28
sS'communication'
p2956
I11
sS'hobby'
p2957
I34
sS'bye'
p2958
I149
sS'spot'
p2959
I23
sS'dad'
p2960
I87
sS'ruined'
p2961
I7
sS'greater'
p2962
I10
sS'flour'
p2963
I8
sS'material'
p2964
I22
sS'earn'
p2965
I12
sS'ship'
p2966
I7
sS'connected'
p2967
I7
sS'cutting'
p2968
I17
sS'snake'
p2969
I10
sS'hands'
p2970
I37
sS'front'
p2971
I78
sS'republican'
p2972
I14
sS'day'
p2973
I588
sS'preschool'
p2974
I18
sS'articles'
p2975
I13
sS'february'
p2976
I11
sS'university'
p2977
I51
sS'accidents'
p2978
I7
sS'slide'
p2979
I8
sS'dursban'
p2980
I9
sS'truth'
p2981
I29
sS'interview'
p2982
I8
sS'bills'
p2983
I34
sS'brush'
p2984
I7
sS'doing'
p2985
I646
sS'adventure'
p2986
I7
sS'strip'
p2987
I13
sS'unbelievable'
p2988
I15
sS'related'
p2989
I26
sS'society'
p2990
I103
sS'books'
p2991
I110
sS'thirteen'
p2992
I37
sS'measure'
p2993
I9
sS'our'
p2994
I998
sS'bay'
p2995
I7
sS'salesman'
p2996
I7
sS'special'
p2997
I60
sS'out'
p2998
I2313
sS'category'
p2999
I15
sS'twice'
p3000
I46
sS'arkansas'
p3001
I10
sS'max'
p3002
I9
sS'smog'
p3003
I11
sS'cause'
p3004
I73
sS'red'
p3005
I48
sS'cartoons'
p3006
I12
sS'shut'
p3007
I15
sS'philosophy'
p3008
I13
sS'southern'
p3009
I28
sS'activity'
p3010
I10
sS'fourteen'
p3011
I25
sS'completely'
p3012
I48
sS'surely'
p3013
I8
sS'vacations'
p3014
I29
sS'retriever'
p3015
I9
sS'scary'
p3016
I60
sS'freshwater'
p3017
I7
sS'yard'
p3018
I90
sS'g'
I26
sS'steal'
p3019
I7
sS'could'
p3020
I989
sS'shells'
p3021
I9
sS'florida'
p3022
I34
sS'times'
p3023
I273
sS'conversation'
p3024
I34
sS'produce'
p3025
I7
sS'pudding'
p3026
I7
sS'restaurants'
p3027
I24
sS'austin'
p3028
I27
sS'vegetables'
p3029
I16
sS'south'
p3030
I95
sS'plastics'
p3031
I10
sS'blown'
p3032
I7
sS'scene'
p3033
I16
sS'owned'
p3034
I22
sS'philadelphia'
p3035
I12
sS'embarrassed'
p3036
I9
sS'drastic'
p3037
I7
sS'owner'
p3038
I11
sS'reached'
p3039
I12
sS'kidding'
p3040
I46
sS'quality'
p3041
I56
sS'reliable'
p3042
I7
sS'has'
p3043
I932
sS'management'
p3044
I30
sS'thirties'
p3045
I7
sS'fascinating'
p3046
I16
sS'privacy'
p3047
I50
sS'guys'
p3048
I123
sS'accent'
p3049
I10
sS'system'
p3050
I236
sS'adopted'
p3051
I12
sS'their'
p3052
I1007
sS'perfectly'
p3053
I12
sS'beard'
p3054
I7
sS'interests'
p3055
I11
sS'shell'
p3056
I13
sS'stars'
p3057
I10
sS'shorts'
p3058
I31
sS'exactly'
p3059
I208
sS'lists'
p3060
I8
sS'chemicals'
p3061
I11
sS'july'
p3062
I12
sS'herself'
p3063
I22
sS'masking'
p3064
I12
sS'neck'
p3065
I7
sS'steel'
p3066
I12
sS'loved'
p3067
I43
sS'boring'
p3068
I19
sS'bother'
p3069
I38
sS'beg'
p3070
I7
sS'bed'
p3071
I29
sS'individual'
p3072
I32
sS'loves'
p3073
I25
sS'lover'
p3074
I7
sS'visited'
p3075
I20
sS'doctorate'
p3076
I7
sS'bet'
p3077
I115
sS'teenagers'
p3078
I15
sS'comfortable'
p3079
I62
sS'tonight'
p3080
I43
sS'have'
p3081
I6766
sS'need'
p3082
I487
sS'apparently'
p3083
I40
sS'clearly'
p3084
I9
sS'catholic'
p3085
I17
sS'afraid'
p3086
I47
sS'dishes'
p3087
I19
sS'dallas'
p3088
I275
sS'studying'
p3089
I15
sS'able'
p3090
I274
sS'mid'
p3091
I13
sS'parks'
p3092
I20
sS'mix'
p3093
I30
sS'relatives'
p3094
I26
sS'concerns'
p3095
I11
sS'which'
p3096
I605
sS'funds'
p3097
I7
sS'jail'
p3098
I27
sS'soap'
p3099
I18
sS'deposit'
p3100
I8
sS'mileage'
p3101
I7
sS'unless'
p3102
I97
sS'combat'
p3103
I8
sS'repairs'
p3104
I11
sS'who'
p3105
I739
sS'scenes'
p3106
I12
sS'useful'
p3107
I18
sS'visa'
p3108
I29
sS'eight'
p3109
I140
sS'brother-in-law'
p3110
I12
sS'comparison'
p3111
I8
sS'why'
p3112
I338
sS'stereo'
p3113
I7
sS'upset'
p3114
I33
sS'disease'
p3115
I16
sS'face'
p3116
I27
sS'looked'
p3117
I97
sS'pure'
p3118
I7
sS'construction'
p3119
I14
sS'se'
p3120
I7
sS'pictures'
p3121
I22
sS'occasion'
p3122
I12
sS'skunk'
p3123
I14
sS'painting'
p3124
I49
sS'fact'
p3125
I306
sS'alternator'
p3126
I9
sS'impression'
p3127
I9
sS'backyard'
p3128
I19
sS'chances'
p3129
I10
sS'supported'
p3130
I9
sS'anyway'
p3131
I273
sS'bring'
p3132
I92
sS'planning'
p3133
I43
sS'democrats'
p3134
I13
sS'bedroom'
p3135
I46
sS'chicken'
p3136
I55
sS'pleased'
p3137
I21
sS'staff'
p3138
I8
sS'ha'
p3139
I8
sS'based'
p3140
I37
sS'knowledge'
p3141
I17
sS'pickup'
p3142
I12
sS'should'
p3143
I428
sS'planted'
p3144
I24
sS'tape'
p3145
I46
sS'employee'
p3146
I15
sS'riding'
p3147
I14
sS'piano'
p3148
I23
sS'local'
p3149
I54
sS'hope'
p3150
I119
sS'meant'
p3151
I18
sS'handle'
p3152
I40
sS'listened'
p3153
I8
sS'watching'
p3154
I122
sS'beat'
p3155
I40
sS'familiar'
p3156
I53
sS'michigan'
p3157
I17
sS'overall'
p3158
I16
sS'lucky'
p3159
I42
sS'bear'
p3160
I9
sS'ones'
p3161
I231
sS'words'
p3162
I41
sS'baby-sitter'
p3163
I14
sS'handgun'
p3164
I7
sS'styrofoam'
p3165
I10
sS'areas'
p3166
I96
sS'gray'
p3167
I14
sS'trucks'
p3168
I11
sS'ended'
p3169
I64
sS'h'
I30
sS'married'
p3170
I113
sS'taxes'
p3171
I108
sS'calling'
p3172
I55
sS'stuff'
p3173
I664
sS'she'
p3174
I1496
sS'dangerous'
p3175
I13
sS'ohio'
p3176
I26
sS'grab'
p3177
I14
sS'fixed'
p3178
I12
sS'generations'
p3179
I15
sS'view'
p3180
I37
sS'europe'
p3181
I47
sS'national'
p3182
I60
sS'pitch'
p3183
I13
sS'accord'
p3184
I7
sS'freeze'
p3185
I14
sS'edition'
p3186
I9
sS'computer'
p3187
I152
sS'powder'
p3188
I8
sS'stack'
p3189
I7
sS'closer'
p3190
I25
sS'wire'
p3191
I11
sS'closet'
p3192
I15
sS'placed'
p3193
I8
sS'pattern'
p3194
I19
sS'suspenseful'
p3195
I7
sS'tend'
p3196
I72
sS'favor'
p3197
I23
sS'written'
p3198
I31
sS'fifties'
p3199
I20
sS'closed'
p3200
I10
sS'horrible'
p3201
I31
sS'stories'
p3202
I38
sS'neither'
p3203
I21
sS'pistol'
p3204
I12
sS'bought'
p3205
I190
sS'ends'
p3206
I26
sS'ability'
p3207
I22
sS'gifted'
p3208
I8
sS'infants'
p3209
I7
sS'job'
p3210
I283
sS'joe'
p3211
I9
sS'key'
p3212
I17
sS'jog'
p3213
I7
sS'police'
p3214
I41
sS'precious'
p3215
I9
sS'thumb'
p3216
I11
sS'restrictions'
p3217
I9
sS'hits'
p3218
I7
sS'figured'
p3219
I37
sS'limits'
p3220
I10
sS'career'
p3221
I28
sS'joke'
p3222
I12
sS'taking'
p3223
I137
sS'equal'
p3224
I16
sS'drug'
p3225
I119
sS'trips'
p3226
I22
sS'april'
p3227
I7
sS'admit'
p3228
I21
sS'monitor'
p3229
I8
sS'swim'
p3230
I8
sS'passing'
p3231
I12
sS'jersey'
p3232
I17
sS'otherwise'
p3233
I34
sS'wall'
p3234
I39
sS'ca'
p3235
I636
sS'walk'
p3236
I95
sS'walt'
p3237
I8
sS'subscribe'
p3238
I17
sS'cartons'
p3239
I9
sS'adding'
p3240
I7
sS'laugh'
p3241
I11
sS'cousin'
p3242
I11
sS'respect'
p3243
I43
sS'winning'
p3244
I10
sS'nose'
p3245
I7
sS'quit'
p3246
I43
sS'packages'
p3247
I11
sS'addition'
p3248
I11
sS'decent'
p3249
I14
sS'cent'
p3250
I10
sS'treat'
p3251
I21
sS'proposal'
p3252
I7
sS'waste'
p3253
I36
sS'louisiana'
p3254
I13
sS'define'
p3255
I7
sS'contribute'
p3256
I10
sS'nickel'
p3257
I7
sS'league'
p3258
I27
sS'painted'
p3259
I36
sS'am'
p3260
I293
sS'essentially'
p3261
I11
sS'finished'
p3262
I32
sS'ours'
p3263
I80
sS'smoking'
p3264
I20
sS'atlanta'
p3265
I10
sS'an'
p3266
I1122
sS'present'
p3267
I25
sS'volunteer'
p3268
I24
sS'structured'
p3269
I8
sS'homes'
p3270
I57
sS'criminal'
p3271
I24
sS'plain'
p3272
I11
sS'harder'
p3273
I23
sS'divorce'
p3274
I9
sS'value'
p3275
I30
sS'will'
p3276
I620
sS'fault'
p3277
I13
sS'wild'
p3278
I32
sS'balance'
p3279
I18
sS'frustrating'
p3280
I12
sS'layer'
p3281
I9
sS'annual'
p3282
I14
sS'almost'
p3283
I243
sS'walks'
p3284
I13
sS'site'
p3285
I12
sS'helped'
p3286
I28
sS'politics'
p3287
I19
sS'arabia'
p3288
I8
sS'bucks'
p3289
I26
sS'lambs'
p3290
I11
sS'sits'
p3291
I8
sS'shooting'
p3292
I24
sS'perhaps'
p3293
I43
sS'administration'
p3294
I15
sS'cross'
p3295
I26
sS'campus'
p3296
I21
sS'member'
p3297
I12
sS'strange'
p3298
I62
sS'conversations'
p3299
I10
sS'inch'
p3300
I11
sS'party'
p3301
I72
sS'strawberries'
p3302
I11
sS'gets'
p3303
I202
sS'tomatoes'
p3304
I25
sS'difficult'
p3305
I72
sS'ball'
p3306
I47
sS'novels'
p3307
I16
sS'drink'
p3308
I22
sS'upon'
p3309
I28
sS'effect'
p3310
I30
sS'student'
p3311
I46
sS'sisters'
p3312
I26
sS'frequently'
p3313
I12
sS'broccoli'
p3314
I8
sS'paycheck'
p3315
I9
sS'off'
p3316
I546
sS'center'
p3317
I71
sS'records'
p3318
I19
sS'i'
I31757
sS'shotgun'
p3319
I12
sS'weapon'
p3320
I16
sS'incredible'
p3321
I39
sS'well'
p3322
I4992
sS'fighting'
p3323
I15
sS'antonio'
p3324
I51
sS'thought'
p3325
I495
sS'patterns'
p3326
I13
sS'english'
p3327
I40
sS'position'
p3328
I31
sS'muscle'
p3329
I7
sS'soviet'
p3330
I36
sS'rush'
p3331
I11
sS'latest'
p3332
I18
sS'load'
p3333
I8
sS'stores'
p3334
I21
sS'thirty-two'
p3335
I9
sS'less'
p3336
I155
sS'oak'
p3337
I9
sS'sister-in-law'
p3338
I13
sS'wealthy'
p3339
I9
sS'sources'
p3340
I13
sS'mistakes'
p3341
I10
sS'rooms'
p3342
I33
sS'seats'
p3343
I10
sS'dakota'
p3344
I15
sS'twenty-three'
p3345
I9
sS'illinois'
p3346
I15
sS'transportation'
p3347
I12
sS'ads'
p3348
I8
sS'fifty-five'
p3349
I16
sS'drunk'
p3350
I12
sS'smith'
p3351
I9
sS'lake'
p3352
I77
sS'realize'
p3353
I84
sS'reasons'
p3354
I33
sS'add'
p3355
I36
sS'other'
p3356
I959
sS'attractive'
p3357
I7
sS'wet'
p3358
I24
sS'seasoning'
p3359
I10
sS'ski'
p3360
I30
sS'ought'
p3361
I71
sS'tests'
p3362
I11
sS'increased'
p3363
I14
sS'government'
p3364
I117
sS'checking'
p3365
I7
sS'utah'
p3366
I46
sS'masters'
p3367
I10
sS'five'
p3368
I344
sS'whatever'
p3369
I303
sS'burden'
p3370
I9
sS'desk'
p3371
I14
sS'press'
p3372
I15
sS'immediately'
p3373
I13
sS'loss'
p3374
I8
sS'fleas'
p3375
I10
sS'puppy'
p3376
I19
sS'necessary'
p3377
I26
sS'like'
p3378
I4960
sS'lost'
p3379
I55
sS'ring'
p3380
I8
sS'mother-in-law'
p3381
I9
sS'ozone'
p3382
I11
sS'garage'
p3383
I35
sS'payments'
p3384
I13
sS'lose'
p3385
I29
sS'become'
p3386
I63
sS'works'
p3387
I104
sS'soft'
p3388
I9
sS'italian'
p3389
I26
sS'shed'
p3390
I11
sS'because'
p3391
I2380
sS'classical'
p3392
I31
sS'scared'
p3393
I34
sS'peer'
p3394
I9
sS'alive'
p3395
I16
sS'mosquitoes'
p3396
I8
sS'hair'
p3397
I26
sS'repeat'
p3398
I13
sS'warmer'
p3399
I11
sS'choosing'
p3400
I9
sS'cleveland'
p3401
I8
sS'kinds'
p3402
I110
sS'peter'
p3403
I11
sS'scares'
p3404
I8
sS'happens'
p3405
I72
sS'leaf'
p3406
I8
sS'nuclear'
p3407
I12
sS'lead'
p3408
I19
sS'literally'
p3409
I12
sS'avoid'
p3410
I8
sS'lean'
p3411
I9
sS'leap'
p3412
I9
sS'does'
p3413
I900
sS'ripped'
p3414
I9
sS'noise'
p3415
I12
sS'pollute'
p3416
I8
sS'schedule'
p3417
I40
sS'selecting'
p3418
I7
sS'journal'
p3419
I15
sS'slant'
p3420
I7
sS'pressure'
p3421
I30
sS'although'
p3422
I95
sS'pasta'
p3423
I8
sS'stage'
p3424
I13
sS'diego'
p3425
I7
sS'sister'
p3426
I59
sS'actual'
p3427
I17
sS'puts'
p3428
I17
sS'getting'
p3429
I489
sS'freedom'
p3430
I14
sS'headed'
p3431
I8
sS'angeles'
p3432
I17
sS'fear'
p3433
I10
sS'sweat'
p3434
I14
sS'introduced'
p3435
I9
sS'swimming'
p3436
I35
sS'warranty'
p3437
I10
sS'own'
p3438
I252
sS'letters'
p3439
I14
sS'tight'
p3440
I8
sS'washington'
p3441
I78
sS'billions'
p3442
I7
sS'cocoa'
p3443
I7
sS'guard'
p3444
I8
sS'weather'
p3445
I120
sS'tiny'
p3446
I22
sS'female'
p3447
I22
sS'buick'
p3448
I9
sS'roads'
p3449
I7
sS'capable'
p3450
I7
sS'drafting'
p3451
I8
sS'eh'
p3452
I9
sS'hitting'
p3453
I11
sS'mississippi'
p3454
I14
sS'van'
p3455
I27
sS'additional'
p3456
I7
sS'housing'
p3457
I16
sS'spots'
p3458
I15
sS'noticed'
p3459
I57
sS'inner'
p3460
I11
sS'biggest'
p3461
I59
sS'exposure'
p3462
I9
sS'naturally'
p3463
I13
sS'buy'
p3464
I223
sS'north'
p3465
I136
sS'stadium'
p3466
I28
sS'bus'
p3467
I16
sS'brand'
p3468
I32
sS'but'
p3469
I6146
sS'collected'
p3470
I7
sS'hi'
p3471
I47
sS'gain'
p3472
I9
sS'courts'
p3473
I9
sS'good-bye'
p3474
I26
sS'highest'
p3475
I9
sS'memphis'
p3476
I9
sS'eat'
p3477
I132
sS'he'
p3478
I2708
sS'count'
p3479
I19
sS'made'
p3480
I258
sS'wise'
p3481
I21
sS'places'
p3482
I175
sS'whether'
p3483
I163
sS'wish'
p3484
I97
sS'j'
I25
sS'smooth'
p3485
I8
sS'flip'
p3486
I7
sS'signed'
p3487
I13
sS'record'
p3488
I35
sS'below'
p3489
I9
sS'persian'
p3490
I9
sS'limit'
p3491
I28
sS'cake'
p3492
I11
sS'jerry'
p3493
I7
sS'problem'
p3494
I413
sS'piece'
p3495
I43
sS'minutes'
p3496
I136
sS'tastes'
p3497
I10
sS'skating'
p3498
I8
sS'recognize'
p3499
I17
sS'penny'
p3500
I12
sS'pie'
p3501
I7
sS'pig'
p3502
I9
sS'beats'
p3503
I7
sS'goodness'
p3504
I87
sS'education'
p3505
I117
sS'girl'
p3506
I65
sS'authority'
p3507
I9
sS'planting'
p3508
I12
sS'spell'
p3509
I7
sS'compared'
p3510
I35
sS"'ll"
p3511
I914
sS'loud'
p3512
I8
sS'variety'
p3513
I27
sS'dressed'
p3514
I20
sS'percent'
p3515
I116
sS'lately'
p3516
I95
sS'book'
p3517
I151
sS'sick'
p3518
I31
sS'dresses'
p3519
I16
sS'junk'
p3520
I9
sS'francisco'
p3521
I14
sS'star'
p3522
I35
sS'monday'
p3523
I20
sS'june'
p3524
I16
sS'stay'
p3525
I183
sS'chance'
p3526
I61
sS'rural'
p3527
I18
sS'priced'
p3528
I11
sS'friends'
p3529
I132
sS'cliff'
p3530
I13
sS'ghost'
p3531
I9
sS'cookbook'
p3532
I9
sS'entertainment'
p3533
I13
sS'rule'
p3534
I12
sS'eos'
p3535
I92279
sS'portion'
p3536
I9
sS'lift'
p3537
I11
sS'richardson'
p3538
I45
sS'parole'
p3539
I10
sS'baked'
p3540
I11
sS'gardens'
p3541
I8
sS'tigon'
p3542
I8
ssS'_mapping'
p3543
(dp3544
g16
I3506
sg17
I1251
sg18
I1637
sg19
I1930
sg20
I2064
sg21
I306
sg22
I1731
sg23
I2046
sg24
I212
sg25
I2319
sg26
I2362
sg27
I1065
sg28
I2476
sg29
I1121
sg30
I679
sg31
I3001
sg32
I3114
sg33
I1060
sg34
I1546
sg35
I2958
sg36
I3542
sg37
I1728
sg38
I2886
sg39
I879
sg40
I1398
sg41
I2579
sg42
I442
sg43
I850
sg44
I717
sg45
I672
sg46
I2379
sg47
I508
sg48
I2243
sg49
I3427
sg50
I1985
sg51
I170
sg52
I2214
sg53
I3219
sg54
I1727
sg55
I2801
sg56
I1550
sg57
I3245
sg58
I125
sg59
I2983
sg60
I2838
sg61
I2253
sg62
I2624
sg63
I756
sg64
I1429
sg65
I1992
sg66
I2946
sg67
I3284
sg68
I2581
sg69
I2004
sg70
I2769
sg71
I2357
sg72
I2572
sg73
I866
sg74
I260
sg75
I715
sg76
I3130
sg77
I1050
sg78
I2893
sg79
I3015
sg80
I1614
sg81
I2193
sg82
I2565
sg83
I2141
sg84
I438
sg85
I655
sg86
I3231
sg87
I430
sg88
I1415
sg89
I112
sg90
I2806
sg91
I3304
sg92
I2092
sg93
I1849
sg94
I1646
sg95
I2116
sg96
I987
sg97
I3393
sg98
I2496
sg99
I1510
sg100
I3299
sg101
I176
sg102
I198
sg103
I1888
sg104
I454
sg105
I2589
sg106
I3082
sg107
I2962
sg108
I132
sg109
I95
sg110
I1686
sg111
I1316
sg112
I1165
sg113
I3262
sg114
I1156
sg115
I3429
sg116
I3261
sg117
I968
sg118
I133
sg119
I390
sg120
I1947
sg121
I2342
sg122
I1494
sg123
I601
sg124
I2126
sg125
I2535
sg126
I402
sg127
I2489
sg128
I3406
sg129
I1104
sg130
I760
sg131
I1867
sg132
I707
sg133
I688
sg134
I842
sg135
I1748
sg136
I1308
sg137
I2284
sg138
I2906
sg139
I3475
sg140
I3469
sg141
I1778
sg142
I682
sg143
I1318
sg144
I2674
sg145
I2884
sg146
I3376
sg147
I3287
sg148
I1182
sg149
I2417
sg150
I2897
sg151
I2779
sg152
I60
sg153
I2594
sg154
I2817
sg155
I1011
sg156
I723
sg157
I1845
sg158
I3516
sg159
I267
sg160
I3522
sg161
I2239
sg162
I2721
sg163
I1689
sg164
I264
sg165
I246
sg166
I3401
sg167
I2260
sg168
I1438
sg169
I2735
sg170
I826
sg171
I3060
sg172
I470
sg173
I1069
sg174
I2047
sg175
I857
sg176
I1753
sg177
I641
sg178
I486
sg179
I947
sg180
I668
sg181
I412
sg182
I2571
sg183
I1585
sg184
I103
sg185
I2645
sg186
I3148
sg187
I1349
sg188
I372
sg189
I3046
sg190
I3111
sg191
I2759
sg192
I40
sg193
I633
sg194
I3367
sg195
I2635
sg196
I280
sg197
I3354
sg198
I1767
sg199
I3372
sg200
I2323
sg201
I1911
sg202
I121
sg203
I210
sg204
I2751
sg205
I3144
sg206
I298
sg207
I524
sg208
I1540
sg209
I878
sg210
I1547
sg211
I2226
sg212
I1613
sg213
I912
sg214
I88
sg215
I982
sg216
I821
sg217
I1129
sg218
I2515
sg219
I2163
sg220
I3137
sg221
I3099
sg222
I1078
sg223
I2435
sg224
I230
sg225
I2102
sg226
I1975
sg227
I512
sg228
I2345
sg229
I3389
sg230
I1412
sg231
I2714
sg232
I1101
sg233
I697
sg234
I3382
sg235
I934
sg236
I3384
sg237
I2121
sg238
I932
sg239
I2923
sg240
I3324
sg241
I3022
sg242
I2650
sg243
I1363
sg244
I2667
sg245
I804
sg246
I3045
sg247
I957
sg248
I1155
sg249
I2185
sg250
I914
sg251
I788
sg252
I1798
sg253
I663
sg254
I2626
sg255
I129
sg256
I2918
sg257
I2144
sg258
I1997
sg259
I3070
sg260
I3400
sg261
I192
sg262
I1093
sg263
I515
sg264
I3477
sg265
I1217
sg266
I1883
sg267
I833
sg268
I220
sg269
I2456
sg270
I394
sg271
I632
sg272
I3541
sg273
I68
sg274
I56
sg275
I1493
sg276
I2416
sg277
I2441
sg278
I1260
sg279
I1895
sg280
I780
sg281
I1606
sg282
I2537
sg283
I2335
sg284
I1740
sg285
I15
sg286
I344
sg287
I45
sg288
I3160
sg289
I1054
sg290
I1513
sg291
I1762
sg292
I2125
sg293
I3125
sg294
I2700
sS'l'
I759
sg295
I1672
sg296
I3062
sg297
I3002
sg298
I2062
sg299
I1175
sg300
I376
sg301
I139
sg302
I413
sg303
I74
sg304
I1683
sg305
I1567
sg306
I1904
sg307
I1288
sg308
I895
sg309
I3202
sg310
I405
sg311
I852
sg312
I1523
sg313
I1843
sg314
I1206
sg315
I1149
sg316
I2736
sg317
I2877
sg318
I708
sg319
I518
sg320
I3432
sg321
I2188
sg322
I728
sg323
I3344
sg324
I3016
sg325
I1626
sg326
I3403
sg327
I73
sg328
I889
sg329
I594
sg330
I2816
sg331
I2974
sg332
I1791
sg333
I92
sg334
I677
sg335
I1106
sg336
I2170
sg337
I3509
sg338
I2931
sg339
I303
sg340
I1711
sg341
I3318
sg342
I2050
sg343
I3158
sg344
I1003
sg345
I3363
sg346
I311
sg347
I3328
sg348
I2858
sg349
I1989
sg350
I2564
sg351
I2152
sg352
I2684
sg353
I2758
sg354
I3426
sg355
I1810
sg356
I3269
sg357
I496
sg358
I1792
sg359
I695
sg360
I2314
sg361
I3450
sg362
I1248
sg363
I1719
sg364
I3136
sg365
I228
sg366
I1607
sg367
I2038
sg368
I2194
sg369
I2336
sg12
I0
sg370
I2754
sg371
I3529
sg372
I2507
sg373
I1299
sg374
I2320
sg375
I559
sg376
I545
sg377
I3301
sg378
I924
sg379
I1681
sg380
I613
sg381
I1315
sg382
I78
sg383
I1789
sg384
I1639
sg385
I1907
sg386
I640
sg387
I572
sg388
I1868
sg389
I2768
sg390
I1096
sg391
I1453
sg392
I2608
sg393
I3064
sg394
I733
sg395
I296
sg396
I2661
sg397
I1204
sg398
I2136
sg399
I3543
sg400
I1571
sg401
I1653
sg402
I3178
sg403
I1465
sg404
I1397
sg405
I1343
sg406
I1174
sg407
I358
sg408
I770
sg409
I2545
sg410
I401
sg411
I1906
sg412
I2257
sS'k'
I1999
sg413
I746
sg414
I2005
sg415
I3264
sg416
I1228
sg417
I1209
sg418
I1917
sg419
I500
sg420
I360
sg421
I955
sg422
I435
sg423
I1780
sg424
I188
sg425
I2904
sg426
I1776
sg427
I217
sg428
I375
sg429
I2690
sg430
I2037
sg431
I2385
sg432
I1822
sg433
I2444
sg434
I1338
sg435
I2017
sg436
I635
sg437
I2486
sg438
I2508
sg439
I775
sg440
I2767
sg441
I2220
sg442
I1484
sg443
I2104
sg444
I2848
sg445
I2913
sg446
I1645
sg447
I891
sg448
I642
sg449
I3279
sg450
I199
sg451
I3420
sg452
I3511
sg453
I599
sg454
I1524
sg455
I1455
sg456
I2687
sg457
I2274
sg458
I2359
sg459
I1198
sg460
I1131
sS'm'
I527
sg461
I379
sg462
I2901
sg463
I365
sg464
I1788
sg465
I2315
sg466
I1184
sg467
I262
sg468
I3139
sg469
I349
sg470
I1323
sg471
I1188
sg472
I724
sg473
I2929
sg474
I2228
sg475
I1617
sg476
I381
sg477
I1757
sg478
I1457
sg479
I967
sg480
I1784
sg481
I1234
sg482
I3193
sg483
I1497
sg484
I3544
sg485
I2658
sg486
I1164
sg487
I1584
sg488
I970
sg489
I2976
sg490
I1258
sg491
I1658
sg492
I17
sg493
I3409
sg494
I1283
sg495
I783
sg496
I2285
sg497
I1039
sg498
I3119
sg499
I1348
sg500
I3105
sg501
I2682
sg502
I2653
sg503
I1259
sg504
I3238
sg505
I607
sg506
I2467
sg507
I747
sg508
I1269
sg509
I200
sg510
I3185
sg511
I2543
sg512
I3458
sg513
I2029
sg514
I1605
sg515
I2464
sg516
I2327
sg517
I3250
sg518
I1629
sg519
I3196
sg520
I1072
sg521
I1825
sg522
I778
sg523
I2438
sg524
I793
sg525
I517
sg526
I3143
sg527
I3392
sg528
I350
sg529
I595
sg530
I131
sg531
I499
sg532
I241
sg533
I1219
sg534
I3104
sS'r'
I773
sg535
I2321
sg536
I1319
sg537
I995
sg538
I2741
sg539
I1202
sg540
I2592
sg541
I1836
sg542
I19
sg543
I529
sg544
I776
sg545
I3201
sg546
I1418
sg547
I472
sg548
I3049
sg549
I1249
sg550
I2386
sg551
I1512
sg552
I3097
sg553
I1583
sg554
I425
sg555
I1521
sg556
I328
sg557
I1421
sg558
I1882
sg559
I1379
sg560
I1968
sg561
I2440
sg562
I2420
sg563
I3213
sg564
I1969
sg565
I255
sg566
I3357
sg567
I3120
sg568
I495
sg569
I718
sg570
I2887
sg571
I1201
sg572
I837
sg573
I1924
sg574
I2825
sg575
I1742
sg576
I834
sg577
I622
sg578
I2694
sg579
I1401
sg580
I3171
sg581
I1623
sg582
I2057
sg583
I2026
sg584
I1717
sg585
I1352
sg586
I1434
sg587
I2660
sg588
I2539
sg589
I1724
sg590
I921
sg591
I1655
sg592
I154
sg593
I83
sg594
I1257
sg595
I1563
sg596
I2166
sg597
I91
sg598
I522
sg599
I986
sg600
I1406
sg601
I2468
sg602
I2204
sg603
I2859
sg604
I2947
sg605
I2179
sg606
I1715
sg607
I285
sg608
I738
sg609
I1905
sg610
I1777
sg611
I1739
sg612
I468
sg613
I3461
sg614
I3221
sg615
I2300
sg616
I962
sg617
I669
sg618
I382
sg619
I2275
sg620
I637
sg621
I2142
sg622
I2550
sg623
I1864
sg624
I1910
sS'n'
I459
sg625
I2347
sg626
I3192
sg627
I698
sg628
I863
sg629
I600
sg630
I2748
sg631
I1802
sg632
I1064
sg633
I3333
sg634
I1618
sg635
I2133
sg636
I1763
sg637
I423
sg638
I1145
sg639
I25
sg640
I5
sg641
I2196
sg642
I1857
sg643
I896
sg644
I3254
sg645
I714
sg646
I1954
sg647
I16
sg648
I3531
sg649
I3259
sg650
I50
sg651
I1172
sg652
I3404
sg653
I1161
sg654
I2891
sg655
I84
sg656
I146
sg657
I2269
sg658
I3223
sg659
I1812
sg660
I2554
sg661
I1267
sg662
I2574
sg663
I3510
sg664
I493
sg665
I1589
sg666
I2807
sg667
I1957
sg668
I602
sg669
I3436
sg670
I2998
sg671
I741
sg672
I1140
sg673
I580
sg674
I565
sg675
I2139
sg676
I3033
sg677
I2644
sg678
I1965
sg679
I1122
sg680
I3182
sg681
I538
sg682
I2606
sg683
I2575
sg684
I569
sg685
I680
sg686
I1837
sg687
I2131
sg688
I3309
sg689
I2883
sg690
I1935
sg691
I2445
sg692
I2206
sg693
I353
sg694
I4
sg695
I1086
sg696
I501
sg697
I2008
sg698
I28
sg699
I1503
sg700
I2158
sg701
I2596
sg702
I1749
sg703
I3073
sg704
I877
sg705
I1094
sg706
I2197
sg707
I525
sg708
I100
sg709
I314
sg710
I3440
sg711
I2073
sg712
I3536
sg713
I1685
sg714
I1196
sg715
I54
sg716
I1649
sg717
I3217
sg718
I1185
sg719
I354
sg720
I839
sg721
I2775
sg722
I862
sg723
I729
sg724
I3491
sg725
I1856
sg726
I2055
sg727
I900
sg728
I1346
sg729
I1238
sg730
I1268
sg731
I3395
sg732
I1284
sg733
I2080
sg734
I3216
sg735
I1804
sg736
I2788
sg737
I1306
sg738
I3345
sg739
I2338
sg740
I2400
sg741
I1944
sg742
I290
sg743
I2830
sg744
I1502
sg745
I2281
sg746
I33
sg747
I177
sg748
I1368
sg749
I373
sg750
I70
sg751
I2411
sg752
I3527
sg753
I1325
sg754
I1189
sg755
I1160
sg756
I1610
sg757
I1848
sg758
I1899
sg759
I2800
sg760
I3320
sg761
I2625
sg762
I3274
sg763
I3355
sg764
I30
sg765
I1162
sg766
I2122
sg767
I2688
sg768
I1635
sg769
I1194
sg770
I2065
sg771
I171
sg772
I1661
sg773
I3422
sg774
I3242
sg775
I631
sg776
I2392
sg777
I2668
sg778
I1923
sg779
I1808
sg780
I1281
sg781
I3438
sg782
I2860
sg783
I1506
sg784
I1970
sg785
I1950
sg786
I973
sg787
I331
sS'o'
I1097
sg788
I1045
sg789
I687
sg790
I1128
sg791
I1732
sg792
I3166
sg793
I1806
sg794
I2351
sg795
I1723
sg796
I964
sg797
I3361
sg798
I3340
sg799
I2076
sg800
I1210
sg801
I2232
sg802
I2237
sg803
I2752
sg804
I439
sg805
I120
sg806
I2643
sg807
I913
sg808
I2963
sg809
I3169
sg810
I2607
sg811
I2301
sg812
I801
sg813
I1395
sg814
I1529
sg815
I474
sg816
I1152
sg817
I3335
sg818
I111
sg819
I2487
sg820
I327
sg821
I24
sg822
I465
sg823
I2849
sg824
I757
sg825
I3093
sg826
I993
sg827
I1490
sg828
I1225
sg829
I1435
sg830
I2629
sg831
I1246
sg832
I1982
sg833
I3343
sg834
I1221
sg835
I329
sg836
I1339
sg837
I3496
sg838
I2936
sg839
I2908
sg840
I164
sg841
I1984
sg842
I749
sg843
I1873
sg844
I3188
sg845
I3027
sg846
I291
sg847
I3462
sg848
I3534
sg849
I2395
sg850
I2783
sg851
I2390
sg852
I1716
sg853
I2523
sg854
I1758
sg855
I2058
sg856
I3336
sg857
I2879
sg858
I3444
sg859
I1854
sg860
I3094
sg861
I2695
sg862
I1351
sg863
I1477
sg864
I2970
sg865
I952
sg866
I1641
sg867
I2895
sg868
I2634
sg869
I2190
sg870
I990
sg871
I1659
sg872
I954
sg873
I1601
sg874
I3332
sg875
I556
sg876
I1586
sg877
I1752
sg878
I1419
sg879
I743
sg880
I2039
sg881
I2398
sg882
I1708
sg883
I1320
sg884
I10
sg885
I1271
sg886
I1280
sg887
I1098
sg888
I2822
sg889
I3512
sg890
I659
sg891
I1973
sg892
I124
sg893
I3153
sg894
I3150
sg895
I51
sg896
I855
sg897
I504
sg898
I1010
sg899
I2853
sg900
I865
sg901
I942
sg902
I868
sg903
I1604
sg904
I1047
sg905
I343
sg906
I2256
sg907
I2165
sg908
I2967
sg909
I1597
sg910
I77
sg911
I1147
sg912
I981
sg913
I1265
sg914
I1846
sg915
I1304
sg916
I2349
sg917
I3359
sg918
I1240
sg919
I1796
sg920
I3294
sg921
I3492
sg922
I3466
sg923
I2278
sg924
I2334
sS'w'
I3198
sg925
I1380
sg926
I1760
sg927
I1534
sg928
I2110
sg929
I1428
sg930
I2755
sg931
I2517
sg932
I2999
sg933
I1199
sg934
I3013
sg935
I1391
sg936
I385
sg937
I3048
sg938
I2187
sg939
I3208
sg940
I648
sg941
I969
sg942
I2217
sg943
I893
sg944
I3113
sg945
I1966
sg946
I2552
sg947
I86
sg948
I2154
sg949
I2722
sg950
I1237
sg951
I1132
sg952
I1634
sg953
I823
sg954
I3314
sg955
I2979
sg956
I3540
sg957
I1592
sg958
I566
sg959
I1690
sg960
I586
sg961
I2461
sg962
I806
sg963
I1090
sg964
I3074
sg965
I730
sg966
I64
sg967
I1136
sg968
I1735
sg969
I526
sg970
I2138
sg971
I514
sS'p'
I448
sg972
I3482
sg973
I471
sg974
I929
sg975
I316
sg976
I2408
sg977
I2457
sg978
I1709
sg979
I1801
sg980
I1860
sg981
I1793
sg982
I3123
sg983
I426
sg984
I403
sg985
I3415
sg986
I2715
sg987
I1952
sg988
I1569
sg989
I2631
sg990
I1151
sg991
I2099
sg992
I537
sg993
I1858
sg994
I369
sg995
I2981
sg996
I1390
sg997
I2405
sg998
I2990
sg999
I2744
sg1000
I3501
sg1001
I3483
sg1002
I3454
sg1003
I1115
sg1004
I1787
sg1005
I301
sg1006
I2098
sg1007
I2077
sg1008
I1805
sg1009
I2560
sg1010
I1981
sg1011
I2935
sg1012
I661
sg1013
I3423
sg1014
I1375
sg1015
I531
sg1016
I1169
sg1017
I2151
sg1018
I370
sg1019
I3319
sg1020
I645
sg1021
I1220
sg1022
I1721
sg1023
I904
sg1024
I461
sg1025
I2937
sg1026
I638
sg1027
I337
sg1028
I546
sg1029
I1111
sg1030
I332
sg1031
I397
sg1032
I2090
sg1033
I2393
sg1034
I3533
sg1035
I992
sg1036
I1292
sg1037
I224
sg1038
I1005
sg1039
I2557
sg1040
I1487
sg1041
I2728
sg1042
I293
sg1043
I2675
sg1044
I794
sg1045
I2706
sg1046
I1771
sg1047
I1912
sg1048
I3311
sg1049
I2699
sg1050
I2450
sg1051
I899
sg1052
I3164
sg1053
I268
sg1054
I2367
sg1055
I2414
sg1056
I273
sg1057
I2697
sg1058
I1227
sg1059
I3226
sg1060
I937
sg1061
I3486
sg1062
I712
sg1063
I207
sg1064
I65
sg1065
I1384
sg1066
I1110
sg1067
I2108
sg1068
I409
sg1069
I2540
sg1070
I3387
sg1071
I744
sg1072
I2470
sg1073
I3209
sg1074
I2452
sg1075
I943
sg1076
I1877
sg1077
I1190
sg1078
I2086
sg1079
I1243
sg1080
I3316
sg1081
I881
sg1082
I1370
sg1083
I1684
sg1084
I2366
sg1085
I2525
sg1086
I214
sg1087
I815
sg1088
I444
sg1089
I2304
sg1090
I2551
sg1091
I2207
sg1092
I1295
sg1093
I71
sg1094
I1549
sg1095
I609
sg1096
I436
sg1097
I3369
sg1098
I279
sg1099
I1061
sg1100
I781
sg1101
I3005
sg1102
I650
sg1103
I597
sg1104
I2454
sg1105
I2968
sg1106
I574
sg1107
I252
sg1108
I2307
sg1109
I1559
sg1110
I3110
sg1111
I2291
sg1112
I2882
sg1113
I2234
sg1114
I3142
sg1115
I606
sg1116
I1747
sg1117
I2219
sg1118
I2790
sg1119
I1014
sg1120
I3411
sg1121
I608
sg1122
I789
sg1123
I2147
sg1124
I1068
sg1125
I1897
sg1126
I2740
sg1127
I3348
sg1128
I1191
sg1129
I1291
sg1130
I3386
sg1131
I858
sg1132
I282
sg1133
I392
sg1134
I2466
sg1135
I988
sg1136
I2972
sg1137
I2670
sg1138
I2053
sg1139
I1838
sg1140
I2067
sg1141
I312
sg1142
I1273
sg1143
I882
sg1144
I2495
sg1145
I422
sg1146
I1730
sg1147
I2030
sg1148
I1633
sg1149
I251
sg1150
I1831
sg1151
I2297
sg1152
I920
sg1153
I147
sg1154
I3000
sg1155
I3280
sg1156
I1946
sg1157
I23
sg1158
I2250
sg1159
I3546
sg1160
I2561
sg1161
I1399
sg1162
I2212
sg1163
I1929
sg1164
I275
sg1165
I1108
sg1166
I1568
sg1167
I2391
sg1168
I1289
sg1169
I1934
sg1170
I2656
sg1171
I928
sg1172
I2620
sg1173
I105
sg1174
I169
sg1175
I1815
sg1176
I530
sg1177
I160
sg1178
I2601
sg1179
I2939
sg1180
I2261
sg1181
I628
sg1182
I673
sg1183
I3071
sg1184
I221
sg1185
I2215
sg1186
I590
sg1187
I2324
sg1188
I3234
sg1189
I1797
sg1190
I2586
sg1191
I1385
sg1192
I1344
sg1193
I750
sg1194
I223
sg1195
I498
sg1196
I2915
sg1197
I2956
sg1198
I1543
sg1199
I2023
sg1200
I3106
sg1201
I2150
sg1202
I1314
sg1203
I2135
sg1204
I299
sg1205
I41
sg1206
I76
sg1207
I828
sg1208
I1353
sg1209
I3233
sg1210
I351
sg1211
I3498
sg1212
I1766
sg1213
I1754
sg1214
I3207
sg1215
I1214
sg1216
I1932
sg1217
I946
sg1218
I2192
sg1219
I1774
sg1220
I2731
sg1221
I3313
sg1222
I1327
sg1223
I2340
sg1224
I2797
sg1225
I13
sg1226
I3360
sg1227
I2287
sg1228
I113
sg1229
I1977
sg1230
I389
sg1231
I951
sg1232
I1769
sg1233
I1515
sg1234
I462
sg1235
I3220
sg1236
I2114
sg1237
I726
sg1238
I1120
sg1239
I3281
sg1240
I3306
sg1241
I302
sg1242
I1940
sg1243
I1651
sg1244
I3133
sg1245
I1367
sg1246
I592
sg1247
I3040
sg1248
I1405
sg1249
I2941
sg1250
I431
sg1251
I1496
sg1252
I3156
sg1253
I2518
sg1254
I227
sg1255
I555
sg1256
I1436
sg1257
I1179
sg1258
I513
sg1259
I201
sg1260
I2273
sg1261
I853
sg1262
I1627
sg1263
I3303
sg1264
I2696
sg1265
I1901
sg1266
I2614
sg1267
I98
sg1268
I213
sg1269
I1347
sg1270
I1714
sg1271
I31
sg1272
I2733
sg1273
I162
sg1274
I1272
sg1275
I1878
sg1276
I1782
sg1277
I2665
sg1278
I2717
sg1279
I473
sg1280
I2590
sg1281
I175
sg1282
I3030
sg1283
I441
sg1284
I1112
sg1285
I2095
sg1286
I286
sg1287
I1447
sg1288
I830
sg1289
I1951
sg1290
I763
sg1291
I1707
sg1292
I352
sg1293
I838
sg1294
I959
sg1295
I1480
sg1296
I1738
sg1297
I676
sg1298
I2992
sg1299
I916
sg1300
I905
sg1301
I2950
sg1302
I1889
sg1303
I656
sg1304
I2081
sg1305
I1180
sg1306
I925
sg1307
I3285
sg1308
I1744
sg1309
I463
sg1310
I6
sg1311
I2896
sg1312
I818
sg1313
I183
sg1314
I3257
sg1315
I3459
sg1316
I1148
sg1317
I1027
sg1318
I123
sg1319
I1387
sg1320
I1334
sg1321
I841
sg1322
I779
sg1323
I3026
sg1324
I3018
sg1325
I1501
sg1326
I3187
sg1327
I3008
sg1328
I846
sg1329
I81
sg1330
I619
sg1331
I2448
sg1332
I2388
sg1333
I3
sg1334
I610
sg1335
I1920
sg1336
I3283
sg1337
I1928
sg1338
I625
sg1339
I2049
sg1340
I753
sg1341
I126
sg1342
I3514
sg1343
I851
sg1344
I300
sg1345
I117
sg1346
I3081
sg1347
I1544
sg1348
I3445
sg1349
I2776
sg1350
I2971
sg1351
I1688
sg1352
I3159
sg1353
I2878
sg1354
I989
sg1355
I1993
sg1356
I130
sg1357
I3077
sg1358
I919
sg1359
I1404
sg1360
I3457
sg1361
I1440
sg1362
I1663
sg1363
I119
sg1364
I2009
sg1365
I960
sg1366
I1355
sg1367
I816
sg1368
I550
sg1369
I469
sg1370
I2463
sg1371
I2680
sg1372
I3441
sg1373
I1768
sg1374
I1528
sg1375
I790
sg1376
I2739
sg1377
I3385
sg1378
I872
sg1379
I326
sg1380
I3513
sg1381
I2616
sg1382
I1166
sg1383
I3312
sg1384
I1158
sg1385
I634
sg1386
I420
sg1387
I3526
sg1388
I1372
sg1389
I1908
sg1390
I1322
sg1391
I1939
sg1392
I2245
sg1393
I1223
sg1394
I1082
sg1395
I2905
sg1396
I1004
sg1397
I800
sg1398
I366
sg1399
I2205
sg1400
I1081
sg1401
I491
sg1402
I2789
sg1403
I2761
sg1404
I2698
sg1405
I2180
sg1406
I3101
sg1407
I1893
sg1408
I782
sg1409
I1290
sg1410
I3452
sg1411
I1988
sg1412
I2453
sg1413
I2555
sg1414
I317
sg1415
I432
sg1416
I152
sg1417
I1034
sg1418
I769
sg1419
I880
sg1420
I2434
sg1421
I52
sg1422
I2427
sg1423
I1828
sg1424
I1790
sg1425
I1844
sg1426
I847
sg1427
I3128
sg1428
I1643
sg1429
I3456
sg1430
I1036
sg1431
I3480
sg1432
I483
sg1433
I458
sg1434
I3168
sg1435
I3206
sg1436
I1636
sg1437
I93
sg1438
I229
sg1439
I2573
sg1440
I2828
sg1441
I2955
sg1442
I2689
sg1443
I2178
sg1444
I3010
sg1445
I2531
sg1446
I2312
sg1447
I265
sg1448
I2010
sg1449
I2558
sg1450
I2024
sg1451
I516
sg1452
I2419
sg1453
I575
sg1454
I605
sg1455
I1879
sg1456
I3146
sg1457
I2302
sg1458
I2157
sg1459
I388
sg1460
I2704
sg1461
I416
sg1462
I1619
sg1463
I449
sg1464
I636
sg1465
I1489
sg1466
I1224
sg1467
I956
sg1468
I1433
sg1469
I1100
sg1470
I2129
sg1471
I1577
sg1472
I1725
sg1473
I2618
sg1474
I1467
sg1475
I3371
sg1476
I2655
sg1477
I1511
sg1478
I3532
sg1479
I939
sg1480
I151
sg1481
I2527
sg1482
I2652
sS'z'
I3551
sg1483
I166
sg1484
I3135
sg1485
I1703
sg1486
I2621
sg1487
I686
sS's'
I653
sg1488
I2279
sg1489
I2566
sg1490
I384
sg1491
I1674
sg1492
I2747
sg1493
I2745
sg1494
I2056
sg1495
I824
sg1496
I2191
sg1497
I2378
sg1498
I1076
sg1499
I752
sg1500
I1386
sg1501
I2917
sg1502
I2952
sg1503
I2866
sg1504
I797
sg1505
I1089
sg1506
I2583
sg1507
I1733
sg1508
I1471
sg1509
I1750
sg1510
I3508
sg1511
I2610
sg1512
I787
sg1513
I3366
sg1514
I540
sg1515
I3095
sg1516
I2609
sg1517
I2743
sg1518
I1141
sg1519
I767
sg1520
I3407
sg1521
I1213
sg1522
I1675
sg1523
I1464
sg1524
I3453
sg1525
I361
sg1526
I2959
sg1527
I3390
sg1528
I1187
sg1529
I109
sg1530
I2691
sg1531
I702
sg1532
I377
sg1533
I2263
sg1534
I148
sg1535
I1030
sg1536
I1475
sg1537
I1113
sg1538
I18
sg1539
I2611
sg1540
I3484
sg1541
I885
sg1542
I429
sg1543
I2874
sg1544
I3239
sg1545
I1026
sg1546
I2254
sg1547
I1063
sg1548
I1548
sg1549
I1943
sg1550
I2181
sg1551
I488
sg1552
I67
sg1553
I3098
sg1554
I2984
sg1555
I2208
sg1556
I1764
sg1557
I1468
sg1558
I1216
sg1559
I706
sg1560
I2948
sg1561
I1159
sg1562
I159
sg1563
I2737
sg1564
I1818
sg1565
I1058
sg1566
I250
sg1567
I3347
sg1568
I1608
sg1569
I2040
sg1570
I184
sg1571
I736
sg1572
I3326
sg1573
I2430
sg1574
I2137
sg1575
I2750
sg1576
I754
sg1577
I3325
sg1578
I2930
sg1579
I1678
sg1580
I2115
sg1581
I257
sg1582
I961
sg1583
I3007
sg1584
I3495
sg1585
I2018
sg1586
I1616
sg1587
I1819
sg1588
I2578
sg1589
I2306
sg1590
I558
sg1591
I2471
sg1592
I2200
sg1593
I938
sg1594
I785
sg1595
I2567
sg1596
I2632
sg1597
I1354
sg1598
I2978
sg1599
I1698
sg1600
I72
sg1601
I2982
sg1602
I3507
sg1603
I2311
sg1604
I2132
sg1605
I1009
sg1606
I1591
sg1607
I2760
sg1608
I2617
sg1609
I2112
sg1610
I2870
sg1611
I2060
sg1612
I1560
sg1613
I2172
sg1614
I355
sg1615
I2885
sg1616
I202
sg1617
I178
sg1618
I710
sg1619
I2294
sg1620
I1507
sg1621
I1720
sg1622
I911
sg1623
I1476
sg1624
I1396
sg1625
I2813
sg1626
I1863
sg1627
I3066
sg1628
I1726
sg1629
I490
sg1630
I3087
sg1631
I364
sg1632
I2546
sg1633
I206
sg1634
I567
sg1635
I1996
sg1636
I2603
sg1637
I2020
sg1638
I2730
sg1639
I3315
sg1640
I1539
sg1641
I3140
sg1642
I2149
sg1643
I114
sg1644
I2277
sg1645
I140
sg1646
I194
sg1647
I2824
sg1648
I1841
sg1649
I766
sg1650
I1167
sg1651
I2156
sg1652
I1595
sg1653
I1173
sg1654
I604
sg1655
I2271
sg1656
I1312
sg1657
I1986
sg1658
I3402
sg1659
I1321
sg1660
I48
sg1661
I3323
sg1662
I3265
sg1663
I1208
sg1664
I231
sg1665
I3467
sg1666
I2818
sg1667
I2247
sg1668
I3134
sg1669
I3485
sg1670
I554
sg1671
I3047
sg1672
I2685
sg1673
I3272
sg1674
I907
sg1675
I2791
sg1676
I3131
sg1677
I1594
sg1678
I3061
sg1679
I3425
sg1680
I2514
sg1681
I3405
sg1682
I3051
sg1683
I2318
sg1684
I1413
sg1685
I2113
sg1686
I3296
sg1687
I2069
sg1688
I1953
sg1689
I582
sg1690
I3465
sg1691
I731
sg1692
I2712
sg1693
I2397
sg1694
I1746
sg1695
I2477
sg1696
I2595
sg1697
I1654
sg1698
I1514
sg1699
I918
sg1700
I1276
sg1701
I674
sg1702
I35
sg1703
I1829
sg1704
I1056
sg1705
I3497
sg1706
I29
sg1707
I12
sg1708
I1119
sg1709
I1656
sg1710
I411
sg1711
I2638
sg1712
I1545
sg1713
I2288
sg1714
I2569
sg1715
I1745
sg1716
I765
sg1717
I1918
sg1718
I1359
sg1719
I1417
sg1720
I1077
sg1721
I36
sg1722
I875
sg1723
I2602
sg1724
I3083
sg1725
I2604
sg1726
I1377
sg1727
I3358
sg1728
I3373
sg1729
I2229
sg1730
I1572
sg1731
I1016
sg1732
I94
sg1733
I1682
sg1734
I134
sg1735
I197
sg1736
I2403
sg1737
I32
sg1738
I696
sg1739
I1532
sg1740
I247
sg1741
I520
sg1742
I849
sg1743
I62
sg1744
I3039
sg1745
I2418
sg1746
I2482
sg1747
I1486
sg1748
I2222
sg1749
I2007
sg1750
I1612
sg1751
I237
sg1752
I2530
sg1753
I3435
sg1754
I211
sg1755
I44
sg1756
I683
sg1757
I722
sg1758
I2964
sg1759
I817
sg1760
I1991
sg1761
I1498
sg1762
I3228
sg1763
I2834
sg1764
I3154
sg1765
I2519
sg1766
I3471
sg1767
I1885
sg1768
I1171
sg1769
I320
sg1770
I1786
sg1771
I318
sg1772
I2265
sg1773
I2266
sg1774
I1948
sg1775
I395
sg1776
I387
sg1777
I1287
sg1778
I1734
sg1779
I678
sg1780
I61
sg1781
I58
sg1782
I2641
sg1783
I994
sg1784
I2646
sg1785
I734
sg1786
I1241
sg1787
I2337
sg1788
I3072
sg1789
I2988
sg1790
I1574
sg1791
I1517
sg1792
I266
sg1793
I3247
sg1794
I1884
sg1795
I2458
sg1796
I991
sg1797
I739
sg1798
I2636
sg1799
I7
sg1800
I902
sg1801
I3121
sg1802
I2683
sg1803
I1079
sg1804
I2295
sg1805
I1504
sg1806
I784
sg1807
I3179
sg1808
I3431
sg1809
I2472
sg1810
I3199
sg1811
I3351
sg1812
I492
sg1813
I2107
sg1814
I1516
sg1815
I2865
sg1816
I944
sg1817
I1558
sg1818
I657
sg1819
I2986
sg1820
I811
sg1821
I347
sg1822
I240
sS'u'
I630
sg1823
I2869
sg1824
I2509
sg1825
I1862
sg1826
I615
sg1827
I1345
sg1828
I49
sg1829
I825
sg1830
I1442
sg1831
I2171
sg1832
I2844
sg1833
I835
sg1834
I396
sg1835
I2907
sg1836
I1566
sg1837
I1974
sg1838
I971
sg1839
I1979
sg1840
I1570
sg1841
I190
sg1842
I2766
sg1843
I2169
sg1844
I755
sg1845
I2702
sg1846
I1687
sg1847
I3191
sg1848
I1820
sg1849
I2146
sg1850
I2846
sg1851
I2459
sg1852
I8
sg1853
I2406
sg1854
I415
sg1855
I1035
sg1856
I3038
sg1857
I2019
sg1858
I1677
sg1859
I2354
sg1860
I3417
sg1861
I1360
sg1862
I3476
sg1863
I587
sg1864
I691
sg1865
I654
sg1866
I97
sg1867
I2480
sg1868
I1866
sg1869
I2198
sg1870
I2814
sg1871
I2549
sg1872
I647
sg1873
I867
sg1874
I684
sg1875
I618
sg1876
I3525
sg1877
I476
sg1878
I3014
sg1879
I3505
sg1880
I1729
sg1881
I1632
sg1882
I1913
sg1883
I958
sg1884
I2841
sg1885
I2474
sg1886
I585
sg1887
I3004
sg1888
I1710
sg1889
I3474
sg1890
I335
sg1891
I2031
sg1892
I649
sg1893
I271
sg1894
I1712
sg1895
I2938
sg1896
I2473
sg1897
I552
sg1898
I3203
sg1899
I840
sg1900
I1483
sg1901
I1640
sg1902
I2664
sg1903
I1537
sg1904
I1491
sg1905
I1667
sg1906
I3379
sg1907
I3190
sg1908
I34
sg1909
I3346
sg1910
I3147
sg1911
I2290
sg1912
I1652
sg1913
I1937
sg1914
I3451
sg1915
I3256
sg1916
I3290
sg1917
I2153
sg1918
I2164
sg1919
I859
sg1920
I368
sg1921
I1525
sg1922
I478
sg1923
I2174
sg1924
I1495
sg1925
I949
sg1926
I482
sg1927
I3449
sg1928
I3029
sg1929
I2880
sg1930
I1019
sg1931
I1394
sg1932
I3503
sg1933
I1300
sg1934
I3278
sg1935
I475
sg1936
I2299
sg1937
I3194
sg1938
I577
sg1939
I2812
sg1940
I2014
sg1941
I548
sg1942
I2103
sg1943
I2588
sg1944
I451
sg1945
I1600
sg1946
I3263
sg1947
I2227
sg1948
I3291
sg1949
I195
sg1950
I2605
sg1951
I2932
sg1952
I1603
sg1953
I136
sg1954
I1392
sg1955
I2148
sg1956
I2949
sg1957
I2654
sg1958
I336
sg1959
I3230
sg1960
I1620
sg1961
I453
sg1962
I3368
sg1963
I3381
sg1964
I102
sg1965
I2692
sg1966
I1452
sg1967
I561
sg1968
I2490
sg1969
I2356
sg1970
I87
sg1971
I2481
sg1972
I1278
sg1973
I1576
sg1974
I576
sg1975
I721
sg1976
I2835
sg1977
I2792
sg1978
I445
sg1979
I983
sg1980
I362
sg1981
I1609
sg1982
I699
sg1983
I348
sg1984
I2831
sg1985
I704
sg1986
I685
sg1987
I393
sg1988
I1898
sg1989
I1013
sg1990
I479
sg1991
I917
sg1992
I3151
sg1993
I2221
sg1994
I1332
sg1995
I506
sg1996
I2534
sS'v'
I321
sg1997
I1839
sg1998
I2679
sg1999
I1042
sg2000
I675
sg2001
I1443
sg2002
I3127
sg2003
I1163
sg2004
I557
sg2005
I1262
sg2006
I2742
sg2007
I560
sg2008
I1553
sg2009
I2355
sg2010
I1200
sg2011
I2524
sg2012
I573
sg2013
I1329
sg2014
I589
sg2015
I3141
sg2016
I758
sg2017
I551
sg2018
I1134
sg2019
I3057
sg2020
I400
sg2021
I1961
sg2022
I831
sg2023
I2720
sg2024
I1029
sg2025
I861
sg2026
I85
sg2027
I391
sg2028
I1602
sg2029
I1350
sg2030
I2413
sg2031
I3118
sg2032
I1400
sg2033
I322
sg2034
I1311
sg2035
I2432
sS'a'
I9
sg2036
I711
sg2037
I2781
sg2038
I2176
sg2039
I2701
sg2040
I1439
sg2041
I2425
sg2042
I3524
sg2043
I2292
sg2044
I3490
sg2045
I1177
sg2046
I1671
sg2047
I1926
sg2048
I3037
sg2049
I705
sg2050
I3430
sg2051
I3364
sg2052
I1695
sg2053
I330
sg2054
I2922
sg2055
I1518
sg2056
I624
sg2057
I1153
sg2058
I1990
sg2059
I1007
sg2060
I346
sg2061
I189
sg2062
I1590
sg2063
I2091
sg2064
I871
sg2065
I1527
sg2066
I2671
sg2067
I1331
sg2068
I1562
sg2069
I173
sg2070
I570
sg2071
I740
sg2072
I950
sg2073
I3172
sg2074
I2159
sg2075
I3059
sg2076
I254
sg2077
I1903
sg2078
I1071
sg2079
I245
sg2080
I564
sg2081
I3383
sg2082
I2209
sg2083
I3537
sg2084
I2044
sg2085
I1074
sg2086
I3416
sg2087
I2061
sg2088
I792
sg2089
I2502
sg2090
I1091
sg2091
I1581
sg2092
I143
sg2093
I2377
sg2094
I2987
sg2095
I1813
sg2096
I297
sg2097
I1203
sg2098
I1233
sg2099
I371
sg2100
I897
sg2101
I450
sg2102
I1092
sg2103
I2109
sg2104
I1052
sg2105
I803
sg2106
I185
sg2107
I510
sg2108
I209
sg2109
I310
sg2110
I713
sg2111
I1679
sg2112
I941
sg2113
I3129
sg2114
I2899
sg2115
I1437
sg2116
I827
sg2117
I37
sg2118
I1279
sg2119
I2087
sg2120
I1286
sg2121
I1799
sg2122
I3375
sg2123
I3468
sg2124
I276
sg2125
I3302
sg2126
I965
sg2127
I2965
sg2128
I620
sg2129
I1575
sg2130
I2013
sg2131
I1012
sg2132
I1282
sg2133
I21
sg2134
I2909
sg2135
I1474
sg2136
I2599
sg2137
I1736
sg2138
I3031
sg2139
I1622
sg2140
I523
sg2141
I2995
sg2142
I2376
sg2143
I709
sg2144
I410
sg2145
I802
sg2146
I2773
sg2147
I2353
sg2148
I521
sg2149
I681
sg2150
I519
sg2151
I843
sg2152
I2328
sg2153
I2145
sg2154
I2630
sg2155
I2330
sg2156
I1088
sg2157
I3297
sg2158
I1008
sg2159
I777
sg2160
I2143
sg2161
I617
sg2162
I2462
sg2163
I1430
sg2164
I356
sg2165
I3518
sg2166
I3388
sg2167
I2201
sg2168
I1964
sg2169
I503
sg2170
I3439
sg2171
I180
sg2172
I2384
sg2173
I398
sg2174
I1821
sg2175
I2568
sg2176
I845
sg2177
I2309
sg2178
I2912
sg2179
I179
sg2180
I2811
sg2181
I3019
sg2182
I860
sg2183
I90
sg2184
I1949
sg2185
I2989
sg2186
I2647
sg2187
I1157
sg2188
I3186
sg2189
I284
sg2190
I1925
sg2191
I643
sg2192
I308
sg2193
I1261
sg2194
I2015
sg2195
I238
sg2196
I666
sg2197
I3041
sg2198
I1002
sg2199
I1499
sg2200
I2240
sg2201
I844
sg2202
I873
sg2203
I2094
sg2204
I2497
sg2205
I226
sg2206
I2074
sg2207
I281
sg2208
I2298
sg2209
I2203
sg2210
I2101
sg2211
I1309
sS'b'
I414
sg2212
I363
sg2213
I1705
sg2214
I3266
sg2215
I3398
sg2216
I338
sg2217
I3424
sg2218
I1469
sg2219
I3530
sg2220
I2663
sg2221
I2305
sg2222
I1855
sg2223
I3267
sg2224
I2873
sg2225
I3132
sg2226
I3535
sg2227
I3519
sg2228
I1557
sg2229
I2678
sg2230
I2771
sg2231
I1847
sg2232
I732
sg2233
I2500
sg2234
I1046
sg2235
I588
sg2236
I3552
sg2237
I1274
sg2238
I1426
sg2239
I3421
sg2240
I204
sg2241
I466
sg2242
I892
sg2243
I1040
sg2244
I289
sg2245
I1107
sg2246
I3042
sg2247
I3021
sg2248
I2123
sg2249
I2469
sg2250
I2381
sg2251
I182
sg2252
I1751
sg2253
I2316
sg2254
I799
sg2255
I1647
sg2256
I419
sg2257
I2246
sg2258
I1244
sg2259
I2529
sg2260
I1588
sg2261
I1881
sg2262
I1335
sg2263
I1668
sg2264
I234
sg2265
I1135
sg2266
I3036
sg2267
I2041
sg2268
I2368
sg2269
I3054
sg2270
I771
sg2271
I3327
sg2272
I2042
sg2273
I720
sg2274
I2821
sg2275
I3289
sg2276
I2919
sg2277
I3222
sg2278
I2283
sg2279
I3068
sg2280
I579
sg2281
I215
sg2282
I3286
sg2283
I1995
sg2284
I3288
sg2285
I1254
sg2286
I2662
sg2287
I2504
sg2288
I2045
sg2289
I915
sg2290
I2997
sg2291
I118
sg2292
I1680
sg2293
I3212
sg2294
I1737
sg2295
I2542
sg2296
I165
sg2297
I612
sg2298
I2787
sg2299
I1277
sg2300
I2933
sg2301
I75
sg2302
I616
sg2303
I1402
sg2304
I3249
sg2305
I2810
sg2306
I1450
sg2307
I584
sg2308
I3090
sg2309
I3520
sg2310
I2598
sg2311
I367
sg2312
I1409
sg2313
I156
sg2314
I1896
sg2315
I3044
sg2316
I1587
sg2317
I2383
sg2318
I2451
sg2319
I3138
sg2320
I1366
sg2321
I1485
sS'x'
I1298
sg2322
I1425
sg2323
I3317
sg2324
I1236
sg2325
I870
sg2326
I3157
sg2327
I2708
sg2328
I1427
sg2329
I487
sg2330
I2276
sg2331
I1448
sg2332
I2262
sg2333
I2021
sg2334
I2782
sg2335
I80
sg2336
I1212
sg2337
I2795
sg2338
I42
sg2339
I3479
sg2340
I2640
sg2341
I406
sg2342
I2160
sg2343
I1859
sg2344
I2236
sg2345
I2808
sg2346
I2155
sg2347
I269
sg2348
I325
sg2349
I2183
sg2350
I2117
sg2351
I2078
sg2352
I1006
sg2353
I1296
sg2354
I2505
sg2355
I116
sg2356
I2681
sg2357
I1916
sg2358
I1037
sg2359
I2492
sg2360
I452
sg2361
I3352
sg2362
I2006
sg2363
I1125
sg2364
I822
sg2365
I2401
sg2366
I3276
sg2367
I3391
sg2368
I277
sS'c'
I309
sg2369
I158
sg2370
I3145
sg2371
I1759
sg2372
I1124
sg2373
I1874
sg2374
I1823
sg2375
I2863
sg2376
I2296
sg2377
I1207
sg2378
I3293
sg2379
I3334
sg2380
I3252
sg2381
I203
sg2382
I3329
sg2383
I890
sg2384
I2868
sg2385
I502
sg2386
I2270
sg2387
I305
sg2388
I1324
sg2389
I1713
sg2390
I2106
sg2391
I568
sg2392
I856
sg2393
I1481
sg2394
I2940
sg2395
I1263
sg2396
I662
sg2397
I813
sg2398
I2729
sg2399
I3100
sg2400
I505
sg2401
I1960
sg2402
I578
sg2403
I1080
sg2404
I3487
sg2405
I2224
sg2406
I1461
sg2407
I2075
sg2408
I3310
sg2409
I1444
sg2410
I2713
sg2411
I1669
sg2412
I2499
sg2413
I2890
sg2414
I1301
sg2415
I3180
sg2416
I1533
sg2417
I2264
sg2418
I2804
sg2419
I2421
sg2420
I341
sg2421
I3115
sg2422
I1938
sg2423
I1138
sg2424
I2289
sg2425
I1041
sg2426
I2446
sg2427
I225
sg2428
I1824
sg2429
I319
sg2430
I2553
sg2431
I2628
sg2432
I1048
sg2433
I2410
sg2434
I2213
sg2435
I963
sg2436
I2329
sg2437
I216
sg2438
I2399
sg2439
I2842
sg2440
I1330
sg2441
I1038
sg2442
I692
sg2443
I2648
sg2444
I2130
sg2445
I2727
sg2446
I235
sg2447
I1466
sg2448
I2600
sg2449
I249
sg2450
I2052
sg2451
I2332
sg2452
I2633
sg2453
I2723
sg2454
I1927
sg2455
I1143
sg2456
I2576
sg2457
I1365
sg2458
I2268
sg2459
I3155
sg2460
I2677
sg2461
I2027
sg2462
I772
sg2463
I603
sg2464
I808
sg2465
I2703
sg2466
I345
sg2467
I1941
sg2468
I481
sg2469
I2100
sg2470
I1959
sg2471
I2916
sg2472
I2455
sg2473
I3197
sg2474
I1275
sg2475
I3433
sg2476
I2559
sg2477
I3034
sg2478
I1817
sg2479
I805
sg2480
I2072
sg2481
I153
sg2482
I1835
sg2483
I2856
sg2484
I1053
sg2485
I2479
sg2486
I2339
sg2487
I1317
sg2488
I2000
sg2489
I998
sg2490
I1541
sg2491
I2503
sg2492
I3550
sg2493
I2991
sg2494
I3396
sg2495
I1582
sg2496
I596
sg2497
I1044
sg2498
I2407
sg2499
I424
sg2500
I644
sg2501
I999
sg2502
I295
sg2503
I1307
sg2504
I3330
sg2505
I2943
sS'y'
I1555
sg2506
I1535
sg2507
I340
sg2508
I14
sg2509
I3195
sg2510
I3003
sg2511
I591
sg2512
I3448
sg2513
I2120
sg2514
I1033
sg2515
I1542
sg2516
I357
sg2517
I1229
sg2518
I2423
sg2519
I1446
sg2520
I497
sg2521
I3069
sg2522
I1416
sg2523
I1886
sg2524
I3205
sg2525
I3224
sg2526
I1978
sg2527
I1018
sg2528
I2341
sg2529
I294
sg2530
I2002
sg2531
I1741
sg2532
I1181
sg2533
I2431
sg2534
I2960
sg2535
I3020
sg2536
I3237
sg2537
I1914
sg2538
I3052
sg2539
I2803
sg2540
I150
sg2541
I236
sg2542
I3394
sg2543
I3548
sg2544
I2969
sg2545
I456
sg2546
I174
sg2547
I1644
sg2548
I1900
sg2549
I1755
sS'd'
I563
sg2550
I1915
sg2551
I1694
sg2552
I1972
sg2553
I2059
sg2554
I1305
sg2555
I1642
sg2556
I953
sg2557
I440
sg2558
I3255
sg2559
I460
sg2560
I621
sg2561
I69
sg2562
I115
sg2563
I2415
sg2564
I2857
sg2565
I1520
sg2566
I3322
sg2567
I2544
sg2568
I1814
sg2569
I2501
sg2570
I1458
sg2571
I3058
sg2572
I2786
sg2573
I2707
sg2574
I1255
sg2575
I2925
sg2576
I1057
sg2577
I3181
sg2578
I3236
sg2579
I751
sg2580
I2532
sg2581
I2985
sg2582
I2313
sg2583
I2409
sg2584
I3370
sS't'
I186
sg2585
I43
sg2586
I1103
sg2587
I1215
sg2588
I1700
sg2589
I1454
sg2590
I1066
sg2591
I3419
sg2592
I144
sg2593
I2823
sg2594
I3547
sg2595
I2331
sg2596
I155
sg2597
I2582
sg2598
I1628
sg2599
I1356
sg2600
I1775
sg2601
I2280
sg2602
I2875
sg2603
I1665
sg2604
I651
sg2605
I689
sg2606
I2784
sg2607
I2488
sg2608
I940
sg2609
I1170
sg2610
I128
sg2611
I832
sg2612
I1783
sg2613
I2426
sg2614
I2521
sg2615
I2363
sg2616
I2855
sg2617
I1408
sg2618
I2001
sg2619
I2536
sg2620
I2954
sg2621
I1826
sg2622
I2028
sg2623
I908
sg2624
I820
sg2625
I553
sg2626
I869
sg2627
I3075
sg2628
I2034
sg2629
I1232
sg2630
I1218
sg2631
I3253
sg2632
I1015
sg2633
I884
sg2634
I3079
sg2635
I1062
sg2636
I2839
sg2637
I1933
sg2638
I2780
sg2639
I2211
sg2640
I735
sg2641
I2627
sg2642
I2238
sg2643
I2975
sg2644
I2216
sg2645
I1919
sg2646
I2725
sg2647
I2705
sg2648
I528
sg2649
I996
sg2650
I1424
sg2651
I3028
sg2652
I63
sg2653
I191
sg2654
I38
sg2655
I3410
sg2656
I39
sg2657
I11
sg2658
I2861
sg2659
I3338
sg2660
I948
sg2661
I304
sg2662
I2429
sg2663
I2035
sg2664
I1871
sg2665
I1630
sg2666
I1827
sg2667
I1696
sg2668
I819
sg2669
I3292
sg2670
I122
sg2671
I1876
sg2672
I2475
sg2673
I2903
sg2674
I2854
sg2675
I1931
sg2676
I2202
sg2677
I1001
sg2678
I1023
sg2679
I2011
sg2680
I1460
sg2681
I3043
sg2682
I898
sg2683
I1168
sg2684
I2977
sg2685
I3096
sg2686
I142
sg2687
I2189
sg2688
I2346
sg2689
I339
sg2690
I2506
sg2691
I1118
sg2692
I2794
sg2693
I1983
sg2694
I2709
sg2695
I1482
sg2696
I2404
sg2697
I2871
sg2698
I219
sg2699
I1250
sS'e'
I694
sg2700
I1770
sg2701
I509
sg2702
I1779
sg2703
I2827
sg2704
I1718
sg2705
I2447
sg2706
I2764
sg2707
I1554
sg2708
I3549
sg2709
I208
sg2710
I2085
sg2711
I3362
sg2712
I1239
sg2713
I1117
sg2714
I256
sg2715
I1611
sg2716
I2637
sg2717
I2920
sg2718
I2921
sg2719
I3204
sg2720
I2242
sg2721
I1449
sg2722
I3342
sg2723
I66
sg2724
I664
sg2725
I2619
sg2726
I1565
sg2727
I1144
sg2728
I725
sg2729
I2957
sg2730
I627
sg2731
I378
sg2732
I690
sg2733
I1945
sg2734
I2845
sg2735
I883
sg2736
I1197
sg2737
I3174
sg2738
I3339
sg2739
I966
sg2740
I2902
sg2741
I795
sg2742
I2071
sg2743
I1479
sg2744
I2774
sg2745
I3545
sg2746
I700
sg2747
I876
sg2748
I1059
sg2749
I3455
sg2750
I2498
sg2751
I3124
sg2752
I3399
sg2753
I3489
sg2754
I2672
sg2755
I2244
sg2756
I205
sg2757
I333
sg2758
I2526
sg2759
I3023
sg2760
I2437
sg2761
I2548
sg2762
I1083
sg2763
I2996
sg2764
I2522
sg2765
I1032
sg2766
I3349
sg2767
I1691
sg2768
I2433
sg2769
I936
sg2770
I1470
sg2771
I887
sg2772
I1049
sg2773
I1432
sg2774
I1765
sg2775
I2649
sg2776
I3463
sg2777
I1422
sg2778
I433
sg2779
I1441
sg2780
I926
sg2781
I2926
sg2782
I3107
sg2783
I1869
sg2784
I489
sg2785
I809
sg2786
I2657
sg2787
I2953
sg2788
I693
sg2789
I3225
sg2790
I1561
sg2791
I427
sg2792
I1337
sg2793
I3270
sg2794
I611
sg2795
I2852
sg2796
I1850
sg2797
I2177
sg2798
I1599
sg2799
I2815
sg2800
I2162
sg2801
I3109
sg2802
I172
sg2803
I974
sg2804
I2251
sg2805
I3472
sg2806
I477
sg2807
I1743
sg2808
I161
sg2809
I2805
sg2810
I2016
sg2811
I421
sg2812
I1411
sg2813
I1530
sg2814
I1573
sg2815
I1701
sg2816
I2182
sg2817
I3437
sg2818
I1000
sg2819
I323
sg2820
I2317
sg2821
I3374
sg2822
I1842
sg2823
I2749
sg2824
I3273
sg2825
I1660
sg2826
I1832
sg2827
I2003
sg2828
I3024
sg2829
I652
sg2830
I2718
sg2831
I1381
sg2832
I2676
sg2833
I2591
sg2834
I3108
sg2835
I3175
sg2836
I1853
sg2837
I1650
sg2838
I181
sg2839
I2079
sg2840
I82
sg2841
I2832
sg2842
I3521
sg2843
I288
sg2844
I232
sg2845
I1024
sg2846
I3017
sg2847
I3528
sg2848
I701
sg2849
I3321
sg2850
I3308
sg2851
I1807
sg2852
I196
sg2853
I2168
sg2854
I2118
sg2855
I243
sg2856
I1478
sg2857
I2945
sg2858
I47
sg2859
I2096
sg2860
I1154
sg2861
I593
sg2862
I313
sg2863
I2066
sg2864
I1870
sg2865
I3295
sg2866
I1362
sg2867
I1102
sS'f'
I1137
sg2868
I57
sg2869
I888
sg2870
I59
sg2871
I2119
sg2872
I2528
sg2873
I791
sg2874
I3494
sg2875
I3080
sg2876
I3076
sg2877
I1095
sg2878
I3246
sg2879
I542
sg2880
I2876
sg2881
I978
sg2882
I3032
sg2883
I539
sg2884
I1579
sg2885
I233
sg2886
I2380
sg2887
I3227
sg2888
I1773
sg2889
I89
sg2890
I3189
sg2891
I1508
sg2892
I1942
sg2893
I2124
sg2894
I2358
sg2895
I2033
sg2896
I1676
sg2897
I786
sg2898
I3539
sg2899
I2303
sg2900
I428
sg2901
I2365
sg2902
I270
sg2903
I2333
sg2904
I1451
sg2905
I2993
sg2906
I3053
sg2907
I2424
sg2908
I549
sg2909
I1811
sg2910
I2659
sg2911
I3161
sg2912
I2732
sg2913
I1962
sg2914
I2785
sg2915
I2167
sg2916
I3232
sg2917
I1245
sg2918
I239
sg2919
I1795
sg2920
I3356
sg2921
I2293
sg2922
I2054
sg2923
I2584
sg2924
I2829
sg2925
I3517
sg2926
I1192
sg2927
I2944
sg2928
I1704
sg2929
I3112
sg2930
I3377
sg2931
I848
sg2932
I3428
sg2933
I1456
sg2934
I2093
sg2935
I1361
sg2936
I1861
sg2937
I1664
sg2938
I748
sg2939
I703
sg2940
I2836
sg2941
I533
sg2942
I1880
sg2943
I1693
sg2944
I3012
sg2945
I639
sg2946
I1420
sg2947
I2173
sg2948
I3089
sg2949
I3271
sg2950
I3538
sg2951
I1625
sg2952
I1624
sg2953
I985
sg2954
I923
sg2955
I1303
sg2956
I2442
sg2957
I1142
sg2958
I386
sg2959
I1505
sg2960
I581
sg2961
I3470
sg2962
I2651
sg2963
I3050
sg2964
I1531
sg2965
I2310
sg2966
I3488
sg2967
I3282
sg2968
I1816
sg2969
I2716
sg2970
I1075
sg2971
I623
sg2972
I2127
sg2973
I149
sg2974
I1772
sg2975
I2161
sg2976
I2465
sg2977
I864
sg2978
I3210
sg2979
I3165
sg2980
I2796
sg2981
I1293
sg2982
I3078
sg2983
I1130
sg2984
I3258
sg2985
I137
sg2986
I3218
sg2987
I2259
sg2988
I2043
sg2989
I1388
sg2990
I511
sg2991
I484
sg2992
I1084
sg2993
I2864
sg2994
I101
sg2995
I3240
sg2996
I3473
sg2997
I764
sg2998
I55
sg2999
I1963
sg3000
I933
sg3001
I2593
sg3002
I2862
sg3003
I2547
sg3004
I646
sg3005
I901
sg3006
I2286
sg3007
I2022
sg3008
I2233
sg3009
I1326
sg3010
I2587
sg3011
I1407
sg3012
I894
sg3013
I3176
sg3014
I1294
sg3015
I2911
sg3016
I762
sg3017
I3337
sg3018
I571
sS'g'
I1373
sg3019
I3502
sg3020
I104
sg3021
I2924
sg3022
I1139
sg3023
I263
sg3024
I1133
sg3025
I3442
sg3026
I3446
sg3027
I1462
sg3028
I1336
sg3029
I1955
sg3030
I544
sg3031
I2693
sg3032
I3251
sg3033
I1936
sg3034
I1536
sg3035
I2372
sg3036
I2802
sg3037
I3307
sg3038
I2510
sg3039
I2382
sg3040
I927
sg3041
I807
sg3042
I3460
sg3043
I107
sg3044
I1252
sg3045
I3523
sg3046
I1892
sg3047
I874
sg3048
I434
sg3049
I2585
sg3050
I283
sg3051
I2272
sg3052
I99
sg3053
I2371
sg3054
I3241
sg3055
I2485
sg3056
I2248
sg3057
I2719
sg3058
I1230
sg3059
I307
sg3060
I3086
sg3061
I2439
sg3062
I2344
sg3063
I1526
sg3064
I2350
sg3065
I3413
sg3066
I2402
sg3067
I972
sg3068
I1666
sg3069
I1055
sg3070
I3244
sg3071
I1270
sg3072
I1195
sg3073
I1414
sg3074
I3397
sg3075
I1657
sg3076
I3305
sg3077
I467
sg3078
I2036
sg3079
I737
sg3080
I984
sg3081
I20
sg3082
I168
sg3083
I1021
sg3084
I2772
sg3085
I1809
sg3086
I903
sg3087
I1673
sg3088
I258
sg3089
I2032
sg3090
I259
sg3091
I2223
sg3092
I1638
sg3093
I1253
sg3094
I1389
sg3095
I2443
sg3096
I145
sg3097
I3341
sg3098
I1341
sg3099
I1785
sg3100
I3025
sg3101
I3408
sg3102
I534
sg3103
I3009
sg3104
I2533
sg3105
I127
sg3106
I2389
sg3107
I1794
sg3108
I1297
sg3109
I399
sg3110
I2282
sg3111
I3011
sg3112
I222
sg3113
I3504
sg3114
I1183
sg3115
I1887
sg3116
I1340
sg3117
I532
sg3118
I3447
sg3119
I2063
sg3120
I3478
sg3121
I1538
sg3122
I2364
sg3123
I2134
sg3124
I886
sg3125
I242
sg3126
I2746
sg3127
I2833
sg3128
I1662
sg3129
I2613
sg3130
I2934
sg3131
I261
sg3132
I562
sg3133
I977
sg3134
I2186
sg3135
I922
sg3136
I812
sg3137
I1580
sg3138
I3170
sg3139
I3065
sg3140
I1070
sg3141
I1834
sg3142
I2373
sg3143
I187
sg3144
I1459
sg3145
I931
sg3146
I1976
sg3147
I2128
sg3148
I1500
sg3149
I829
sg3150
I447
sg3151
I1761
sg3152
I1028
sg3153
I3085
sg3154
I437
sg3155
I1022
sg3156
I836
sg3157
I1840
sg3158
I1922
sg3159
I997
sg3160
I2756
sg3161
I287
sg3162
I1020
sg3163
I2051
sg3164
I3350
sg3165
I2724
sg3166
I536
sg3167
I2089
sg3168
I2570
sg3169
I719
sS'h'
I1247
sg3170
I480
sg3171
I494
sg3172
I810
sg3173
I135
sg3174
I79
sg3175
I2184
sg3176
I1383
sg3177
I2088
sg3178
I2322
sg3179
I1987
sg3180
I1085
sg3181
I909
sg3182
I761
sg3183
I2235
sg3184
I3211
sg3185
I2084
sg3186
I2798
sg3187
I380
sg3188
I3126
sg3189
I3500
sg3190
I1403
sg3191
I2580
sg3192
I1967
sg3193
I3117
sg3194
I1697
sg3195
I3515
sg3196
I667
sg3197
I1488
sg3198
I1235
sg3199
I1621
sg3200
I2615
sg3201
I1222
sg3202
I1067
sg3203
I1578
sg3204
I2374
sg3205
I324
sg3206
I1371
sg3207
I1509
sg3208
I3056
sg3209
I3365
sg3210
I253
sg3211
I2840
sg3212
I1833
sg3213
I3380
sg3214
I1017
sg3215
I2900
sg3216
I2563
sg3217
I2910
sg3218
I3353
sg3219
I1073
sg3220
I2666
sg3221
I1302
sg3222
I2343
sg3223
I404
sg3224
I1891
sg3225
I446
sg3226
I1552
sg3227
I3229
sg3228
I1556
sg3229
I3102
sg3230
I3177
sg3231
I2369
sg3232
I1830
sg3233
I1146
sg3234
I1051
sg3235
I138
sg3236
I547
sg3237
I3200
sg3238
I1865
sg3239
I2765
sg3240
I3214
sg3241
I2493
sg3242
I2449
sg3243
I980
sg3244
I2738
sg3245
I3418
sg3246
I979
sg3247
I2512
sg3248
I2422
sg3249
I2068
sg3250
I2612
sg3251
I1596
sg3252
I3443
sg3253
I1109
sg3254
I2218
sg3255
I3298
sg3256
I2622
sg3257
I3414
sg3258
I1342
sg3259
I1099
sg3260
I248
sg3261
I2460
sg3262
I1193
sg3263
I614
sg3264
I1648
sg3265
I2597
sg3266
I96
sg3267
I1423
sg3268
I1472
sg3269
I3173
sg3270
I796
sg3271
I1445
sg3272
I2516
sg3273
I1492
sg3274
I2793
sg3275
I1266
sg3276
I141
sg3277
I2199
sg3278
I1205
sg3279
I1722
sg3280
I2326
sg3281
I2847
sg3282
I2048
sg3283
I278
sg3284
I2267
sg3285
I2396
sg3286
I1310
sg3287
I1699
sg3288
I2973
sg3289
I1364
sg3290
I2491
sg3291
I3162
sg3292
I1463
sg3293
I975
sg3294
I1958
sg3295
I1369
sg3296
I1564
sg3297
I2352
sg3298
I742
sg3299
I2623
sg3300
I2483
sg3301
I665
sg3302
I2556
sg3303
I315
sg3304
I1431
sg3305
I658
sg3306
I906
sg3307
I1921
sg3308
I1519
sg3309
I1333
sg3310
I1242
sg3311
I930
sg3312
I1393
sg3313
I2325
sg3314
I2994
sg3315
I2888
sg3316
I157
sg3317
I670
sg3318
I1706
sS'i'
I2
sg3319
I2394
sg3320
I1956
sg3321
I1043
sg3322
I26
sg3323
I1980
sg3324
I854
sg3325
I163
sg3326
I2230
sg3327
I1025
sg3328
I1226
sg3329
I3412
sg3330
I1105
sg3331
I2538
sg3332
I1756
sg3333
I3088
sg3334
I1593
sg3335
I2942
sg3336
I374
sg3337
I2881
sg3338
I2252
sg3339
I2961
sg3340
I2255
sg3341
I2673
sg3342
I1178
sg3343
I2711
sg3344
I1971
sg3345
I2951
sg3346
I1994
sg3347
I2412
sg3348
I2966
sg3349
I1894
sg3350
I2308
sg3351
I2927
sg3352
I629
sg3353
I598
sg3354
I1176
sg3355
I1087
sg3356
I106
sg3357
I3235
sg3358
I1473
sg3359
I2710
sg3360
I1264
sg3361
I671
sg3362
I2562
sg3363
I2097
sg3364
I457
sg3365
I3268
sg3366
I935
sg3367
I2669
sg3368
I218
sg3369
I244
sg3370
I2763
sg3371
I2070
sg3372
I2012
sg3373
I2210
sg3374
I3091
sg3375
I2642
sg3376
I1702
sg3377
I1382
sg3378
I27
sg3379
I814
sg3380
I3149
sg3381
I2872
sg3382
I2511
sg3383
I1116
sg3384
I2231
sg3385
I1285
sg3386
I727
sg3387
I507
sg3388
I2928
sg3389
I1378
sg3390
I2541
sg3391
I53
sg3392
I1211
sg3393
I1150
sg3394
I2889
sg3395
I1872
sg3396
I3103
sg3397
I1376
sg3398
I2241
sg3399
I2577
sg3400
I2770
sg3401
I3006
sg3402
I485
sg3403
I2513
sg3404
I3152
sg3405
I660
sg3406
I3084
sg3407
I2361
sg3408
I1692
sg3409
I2348
sg3410
I2980
sg3411
I2850
sg3412
I2851
sg3413
I110
sg3414
I2914
sg3415
I2360
sg3416
I3122
sg3417
I1031
sg3418
I3481
sg3419
I1998
sg3420
I3493
sg3421
I1256
sg3422
I541
sg3423
I3116
sg3424
I2258
sg3425
I3300
sg3426
I774
sg3427
I1800
sg3428
I1851
sg3429
I167
sg3430
I2083
sg3431
I3067
sg3432
I1803
sg3433
I2639
sg3434
I2140
sg3435
I2837
sg3436
I1127
sg3437
I2734
sg3438
I274
sg3439
I2105
sg3440
I3183
sg3441
I626
sg3442
I3248
sg3443
I3275
sg3444
I3063
sg3445
I443
sg3446
I1551
sg3447
I1522
sg3448
I2762
sg3449
I3464
sg3450
I3260
sg3451
I3035
sg3452
I2799
sg3453
I2478
sg3454
I2111
sg3455
I1357
sg3456
I3215
sg3457
I1902
sg3458
I2025
sg3459
I798
sg3460
I2484
sg3461
I768
sg3462
I2809
sg3463
I2225
sg3464
I292
sg3465
I408
sg3466
I1328
sg3467
I1875
sg3468
I1186
sg3469
I22
sg3470
I3277
sg3471
I910
sg3472
I2819
sg3473
I2778
sg3474
I1374
sg3475
I2826
sg3476
I2867
sg3477
I417
sg3478
I46
sg3479
I1670
sg3480
I272
sg3481
I1598
sg3482
I342
sg3483
I359
sg3484
I535
sS'j'
I1410
sg3485
I3167
sg3486
I3331
sg3487
I2249
sg3488
I1123
sg3489
I2757
sg3490
I2892
sg3491
I1313
sg3492
I2436
sg3493
I3378
sg3494
I193
sg3495
I976
sg3496
I407
sg3497
I2726
sg3498
I3163
sg3499
I1852
sg3500
I2370
sg3501
I3434
sg3502
I2894
sg3503
I3243
sg3504
I583
sg3505
I455
sg3506
I716
sg3507
I2753
sg3508
I2375
sg3509
I3499
sg3510
I1114
sg3511
I108
sg3512
I3092
sg3513
I1358
sg3514
I1615
sg3515
I464
sg3516
I543
sg3517
I383
sg3518
I1231
sg3519
I1890
sg3520
I2843
sg3521
I2082
sg3522
I1126
sg3523
I1631
sg3524
I1909
sg3525
I334
sg3526
I745
sg3527
I1781
sg3528
I2520
sg3529
I418
sg3530
I2175
sg3531
I2820
sg3532
I2777
sg3533
I2195
sg3534
I2387
sg3535
I1
sg3536
I2898
sg3537
I2494
sg3538
I945
sg3539
I2686
sg3540
I2428
sg3541
I3055
sg3542
I3184
ssS'_reverse_mapping'
p3545
(lp3546
g12
ag3535
aS'i'
ag1333
ag694
ag640
ag1310
ag1799
ag1852
aS'a'
ag884
ag2657
ag1707
ag1225
ag2508
ag285
ag647
ag492
ag1538
ag542
ag3081
ag2133
ag3469
ag1157
ag821
ag639
ag3322
ag3378
ag698
ag1706
ag764
ag1271
ag1737
ag746
ag1908
ag1702
ag1721
ag2117
ag2654
ag2656
ag192
ag1205
ag2338
ag2585
ag1755
ag287
ag3478
ag2858
ag1660
ag1828
ag650
ag895
ag1421
ag3391
ag715
ag2998
ag274
ag2868
ag1781
ag2870
ag152
ag1780
ag1743
ag2652
ag966
ag1064
ag2723
ag1552
ag273
ag2561
ag750
ag1093
ag1600
ag327
ag303
ag2301
ag1206
ag910
ag382
ag3174
ag2335
ag1329
ag2840
ag593
ag655
ag2026
ag947
ag1970
ag214
ag2889
ag2183
ag597
ag333
ag1437
ag1732
ag109
ag3266
ag1866
ag1267
ag3052
ag708
ag2994
ag1964
ag184
ag3020
ag1173
ag3356
ag3043
ag3511
ag1529
ag3413
ag818
ag89
ag1228
ag1643
ag2562
ag2355
ag1345
ag2291
ag1363
ag805
ag202
ag2670
ag1318
ag892
ag58
ag1341
ag3105
ag2610
ag255
ag1356
ag530
ag108
ag118
ag1734
ag3173
ag1953
ag2985
ag3235
ag301
ag1645
ag3276
ag2686
ag2092
ag2592
ag3096
ag656
ag1153
ag1534
ag2973
ag2540
ag1480
ag1416
ag2481
ag592
ag2596
ag2313
ag3316
ag2369
ag1562
ag1177
ag2808
ag1273
ag3325
ag840
ag2296
ag1483
ag3429
ag3082
ag1174
ag51
ag771
ag2802
ag2069
ag2546
ag1281
ag101
ag747
ag1617
ag2179
ag2171
ag2838
ag2251
ag1313
ag1570
ag2106
aS't'
ag3143
ag424
ag2061
ag1841
ag2653
ag261
ag3494
ag1646
ag1949
ag2852
ag1735
ag102
ag450
ag509
ag1259
ag1616
ag2381
ag2240
ag2756
ag1633
ag1063
ag2709
ag2108
ag203
ag1754
ag24
ag1268
ag1086
ag2281
ag2437
ag427
ag3368
ag2698
ag268
ag1184
ag3112
ag1194
ag1037
ag2427
ag2205
ag1254
ag365
ag1438
ag224
ag1664
ag2844
ag2885
ag2264
ag2446
ag2541
ag1751
ag2195
ag2918
ag1822
ag532
ag3125
ag2855
ag3369
ag2079
ag165
ag1740
ag3260
ag2449
ag1566
ag1149
ag1107
ag3210
ag2076
ag565
ag2714
ag1581
ag3088
ag3090
ag74
ag3131
ag467
ag3023
ag164
ag1447
ag1792
ag159
ag1053
ag2347
ag2902
ag1893
ag3480
ag1056
ag3438
ag1164
ag2124
ag2368
ag3283
ag1098
ag196
ag2207
ag1132
ag3050
ag2189
ag607
ag1286
ag3161
ag2843
ag2244
ag742
ag846
ag3464
ag1042
ag2529
ag2502
ag395
ag2096
ag206
ag1204
ag1344
ag1005
ag1241
ag339
ag2661
ag2387
ag21
ag3059
ag2192
aS'c'
ag2109
ag346
ag1141
ag2862
ag709
ag3303
ag975
ag1414
ag1771
ag2429
ag1769
aS'v'
ag2033
ag2819
ag3205
ag2348
ag1379
ag820
ag556
ag835
ag2053
ag787
ag1030
ag2757
ag3525
ag1890
ag1958
ag1027
ag2216
ag2689
ag2507
ag2420
ag3482
ag905
ag286
ag2466
ag2060
ag1821
ag1983
ag469
ag528
ag1210
ag1292
ag693
ag719
ag1614
ag2164
ag2516
ag407
ag3483
ag420
ag1525
ag1980
ag2212
ag1631
ag463
ag1398
ag2311
ag1920
ag994
ag1018
ag2099
ag188
ag749
ag3336
ag428
ag300
ag1532
ag2731
ag461
ag3187
ag476
ag618
ag3517
ag1490
ag936
ag2958
ag1776
ag1459
ag1230
ag119
ag2027
ag1133
ag1987
ag270
ag1775
ag1834
ag1031
ag2173
ag3109
ag2020
ag410
ag126
ag984
ag3223
ag310
ag2341
ag3496
ag3465
ag1068
ag2144
ag1710
ag181
ag302
aS'b'
ag1854
ag1461
ag3477
ag3529
ag2256
ag1386
ag2811
ag1145
ag637
ag2499
ag554
ag983
ag2791
ag2900
ag1542
ag87
ag1250
ag1415
ag2778
ag3048
ag422
ag1096
ag3154
ag84
ag804
ag2557
ag1283
ag42
ag3445
ag1088
ag1978
ag3225
ag3150
aS'p'
ag1463
ag2101
ag1944
ag2360
ag1961
ag104
ag3505
ag2545
ag3364
ag1433
aS'n'
ag2559
ag1024
ag1234
ag1309
ag3515
ag822
ag2241
ag3077
ag612
ag1369
ag172
ag973
ag547
ag1279
ag815
ag1935
ag1877
ag2806
ag1922
ag1990
ag3170
ag2468
ag1926
ag1432
ag2991
ag3402
ag178
ag2329
ag1551
ag2784
ag1629
ag1401
ag1812
ag664
ag3171
ag568
ag357
ag2520
ag1195
ag531
ag419
ag696
ag2385
ag2169
ag897
ag2400
ag1995
ag3387
ag47
ag2701
ag2107
ag2990
ag227
ag1258
ag971
ag263
ag1451
ag525
ag319
ag2150
ag1741
ag2148
ag598
ag2140
ag207
ag707
ag969
aS'm'
ag2648
ag543
ag1176
ag1015
ag3117
ag2941
ag3102
ag3484
ag3166
ag992
ag681
ag2883
ag1514
ag3422
ag2879
ag3516
ag3030
ag376
ag1028
ag3236
ag1941
ag2908
ag1368
ag2017
ag1897
ag2625
ag1670
ag1255
ag875
ag2004
ag1590
ag375
ag2007
ag1967
ag3132
aS'd'
ag2080
ag674
ag958
ag1634
ag2391
ag684
ag2070
ag3018
ag387
ag2012
ag1106
ag1453
ag1974
ag1938
ag2402
ag2280
ag673
ag2960
ag1689
ag3504
ag2307
ag1886
ag960
ag1863
ag2235
ag2014
ag1186
ag2511
ag1246
ag2861
ag329
ag529
ag2496
ag1103
ag3353
ag453
ag629
ag123
ag668
ag2463
ag1654
ag1454
ag1115
ag505
ag1121
ag1095
ag1334
ag2794
ag2297
ag380
ag3263
ag1826
ag2302
ag2161
ag1875
ag1330
ag2128
ag2560
ag577
ag2971
ag2056
ag1338
ag3441
ag2730
ag1181
ag3352
aS'u'
ag775
ag271
ag193
ag1385
ag436
ag1464
ag620
ag1026
ag2945
ag386
ag177
ag448
ag2191
ag2500
ag1020
ag3004
ag1872
ag940
ag1892
ag1102
ag2604
ag2829
aS's'
ag1865
ag85
ag1303
ag1818
ag3305
ag890
ag3405
ag1012
ag2396
ag253
ag2724
ag3301
ag2196
ag3196
ag180
ag617
ag3317
ag3361
ag45
ag1182
ag1701
ag2000
ag1297
ag334
ag1779
ag30
ag685
ag2149
ag142
ag1756
ag1874
ag1986
ag1487
ag789
ag133
ag2605
ag2732
ag1864
ag2442
ag2788
aS'e'
ag359
ag1738
ag233
ag627
ag1982
ag2746
ag2848
ag1531
ag2939
ag1985
ag2049
ag1559
ag132
ag318
ag2143
ag1618
ag2036
ag1062
ag2110
ag645
ag75
ag3506
ag44
ag569
ag3169
ag2273
ag1975
ag1757
ag156
ag472
ag2728
ag1237
ag3386
ag322
ag723
ag965
ag1691
ag2232
ag394
ag1785
ag2640
ag1571
ag3079
ag608
ag1797
ag2071
ag671
ag3298
ag879
ag1071
ag3526
ag413
ag507
ag2938
ag842
ag1193
ag2579
ag1499
ag1340
ag1576
ag1844
ag63
ag824
ag2016
aS'l'
ag130
ag3182
ag3016
ag1290
ag2997
ag1716
ag1649
ag1519
ag3461
ag1418
ag408
ag2270
ag2462
aS'r'
ag3426
ag439
ag544
ag2159
ag522
ag1322
ag280
ag1100
ag1408
ag495
ag1806
ag1594
ag2897
ag1512
ag251
ag1122
ag1375
ag2873
ag2088
ag524
ag1044
ag2741
ag3270
ag1504
ag3459
ag2254
ag1397
ag812
ag2145
ag2105
ag245
ag2479
ag962
ag3041
ag2464
ag2785
ag3172
ag1820
ag3136
ag2397
ag3379
ag1087
ag1367
ag1759
ag1312
ag2668
ag2624
ag216
ag2364
ag953
ag1495
ag1829
ag170
ag2116
ag1207
ag3149
ag1288
ag2022
ag2611
ag267
ag576
ag1833
ag3156
ag572
ag1293
ag720
ag1899
ag1321
ag134
ag2151
ag2201
ag2176
ag1328
ag1426
ag2931
ag1742
ag43
ag1343
ag311
ag1261
ag3324
ag896
ag2392
ag175
ag1131
ag1919
ag2182
ag2025
ag722
ag628
ag2977
ag900
ag73
ag1873
ag902
ag2626
ag2325
ag2064
ag1378
ag2202
ag3047
ag1722
ag2747
ag704
ag209
ag39
ag1419
ag1081
ag1143
ag2735
ag2633
ag1541
ag3124
ag2771
ag2869
ag328
ag2383
ag447
ag2242
ag943
ag3012
ag308
ag643
ag2100
ag2682
ag1051
ag727
ag3005
ag1800
ag3086
ag1023
ag1300
ag3306
ag1674
ag2623
ag3181
ag3471
ag1622
ag213
ag807
ag250
ag2289
ag1299
ag1991
ag1699
ag1358
ag1152
ag590
ag3135
ag2954
ag378
ag1306
ag2780
ag3040
ag1171
ag974
ag3311
ag3145
ag238
ag3000
ag235
ag3366
ag2769
ag1060
ag1593
ag1479
ag2608
ag2112
ag901
ag1075
ag1816
ag3538
ag1217
ag179
ag2660
ag1925
ag2072
ag1231
ag865
ag2556
ag872
ag421
ag1467
ag247
ag1883
ag1294
ag1365
ag1582
ag616
ag2435
ag796
ag2126
ag2739
ag479
ag117
ag941
ag488
ag1838
ag3067
ag786
ag2803
ag3293
ag3495
ag3133
ag2881
ag3246
ag3243
ag912
ag215
ag1979
ag3080
ag2953
ag599
ag96
ag1135
ag1354
ag870
ag1796
ag1035
ag826
ag1783
ag537
ag2649
ag3159
ag2489
ag2501
ag2818
ag2677
ag2198
ag344
ag1396
ag1038
ag2352
ag2059
ag2158
ag1605
ag898
ag155
ag2131
ag1989
ag1119
ag2632
ag1731
ag3214
ag2527
ag1930
ag3162
ag3083
ag3155
ag2678
ag2845
ag3327
ag1545
ag1317
ag3152
ag2024
ag1535
ag3417
ag2765
ag2514
ag1417
ag1855
ag1430
ag2358
ag2441
ag497
ag2243
ag2425
ag1999
ag3321
ag2497
ag788
ag2234
ag904
ag2432
ag2772
ag77
ag3234
ag2104
ag2484
ag289
ag3069
ag1704
ag2576
ag1565
ag2748
ag33
ag1099
ag2635
ag1547
ag632
ag27
ag2590
ag3202
ag1124
ag173
ag3140
ag2078
ag520
ag3219
ag2085
ag2970
ag1498
ag1720
ag222
ag1803
ag2403
ag1400
ag1394
ag2762
ag2992
ag3180
ag695
ag3355
ag2156
ag1505
ag963
ag2090
ag2102
ag262
ag705
ag2877
ag390
aS'o'
ag887
ag3259
ag1469
ag232
ag2867
ag2586
ag129
ag3330
ag335
ag2245
ag1165
ag3253
ag1066
ag1029
ag1284
ag1537
ag3510
ag1003
ag3383
ag2713
ag2691
ag1708
ag1238
ag29
ag679
ag3488
ag2372
ag2363
ag3522
ag3436
ag790
ag217
ag2983
ag460
ag951
ag3024
ag2018
ag2265
ag967
aS'f'
ag2423
ag3022
ag672
ag1518
ag2957
ag2455
ag2727
ag638
ag3233
ag911
ag1316
ag315
ag3393
ag990
ag816
ag2057
ag2860
ag248
ag114
ag2187
ag1384
ag1561
ag755
ag653
ag765
ag2003
ag486
ag112
ag1382
ag1650
ag2683
ag1016
ag2609
ag1768
ag651
ag1653
ag406
ag299
ag3354
ag2045
ag3342
ag1257
ag1305
ag2532
ag148
ag3114
ag466
ag718
ag3468
ag1528
ag471
ag754
ag1077
ag1128
ag2926
ag3262
ag769
ag3072
ag714
ag2736
ag459
ag933
ag2010
ag571
ag539
ag2097
ag397
ag3278
ag314
ag2377
ag1663
ag417
ag800
ag3392
ag2336
ag1521
ag1215
ag2587
ag1558
ag265
ag2630
ag533
ag1021
ag834
ag3201
ag1393
ag1466
ag828
ag3328
ag1058
ag416
ag2517
ag3058
ag3518
ag2629
ag2098
ag481
ag3198
ag2324
ag950
ag729
ag2712
ag918
ag1786
ag3310
ag1079
ag2258
ag2917
ag831
aS'h'
ag362
ag549
ag2699
ag17
ag3044
ag3093
ag2285
ag2574
ag3421
ag594
ag490
ag503
ag278
ag2193
ag2005
ag2395
ag3360
ag913
ag3275
ag661
ag730
ag508
ag3071
ag885
ag1274
ag1142
ag2237
ag2474
ag1700
ag2299
ag1972
ag2118
ag886
ag780
ag2132
ag494
ag732
ag3385
ag2120
ag1777
ag307
ag1168
ag1409
ag1129
ag1036
ag2981
ag3014
ag1092
ag2353
ag3108
aS'x'
ag373
ag1933
ag2414
ag3221
ag2955
ag915
ag2554
ag737
ag2503
ag136
ag2211
ag3286
ag2034
ag1656
ag3491
ag1202
ag381
ag111
ag2487
ag143
ag536
ag883
ag1659
ag1390
ag470
ag2388
ag753
ag3009
ag1222
ag3466
ag2013
ag2440
ag2067
ag1994
ag3309
ag1320
ag2262
ag3028
ag2792
ag434
ag836
ag3116
ag3098
ag3258
ag405
ag1192
ag1827
ag728
ag1269
ag499
ag187
ag2029
ag862
ag585
ag1208
ag1597
ag1366
ag2599
ag3455
ag3513
ag1718
ag1861
ag2935
ag2866
ag243
ag3289
ag2457
ag2320
ag1245
ag748
ag3295
ag1082
ag3206
ag1388
aS'g'
ag3474
ag1014
ag3397
ag1726
ag3389
ag559
ag925
ag2831
ag3377
ag3176
ag1065
ag1191
ag1500
ag1319
ag2989
ag3094
ag996
ag935
ag1954
ag3312
ag1931
ag813
ag1624
ag404
ag40
ag1161
ag2032
ag579
ag2303
ag3190
ag1359
ag1248
ag600
ag3011
ag2617
ag2312
aS'j'
ag2812
ag230
ag1684
ag3073
ag88
ag2522
ag1719
ag546
ag878
ag2946
ag557
ag2777
ag3267
ag2650
ag2322
ag2238
ag2328
ag929
ag64
ag2163
ag3304
ag2773
ag1468
ag586
ag829
ag1256
ag2115
ag168
ag2040
ag1361
ag2779
ag1830
ag2001
ag2409
ag3271
ag2519
ag1287
ag2331
ag2721
ag2306
ag2904
ag1966
ag391
ag2589
ag455
ag2933
ag478
ag2570
ag3144
ag2680
ag2406
ag3027
ag3292
ag1523
ag403
ag2447
ag1474
ag1557
ag2218
ag2770
ag1508
ag3268
ag3358
ag2135
ag1536
ag1623
ag863
ag2856
ag2743
ag1295
ag2393
ag2695
ag1900
ag442
ag2321
ag1747
ag1040
ag3197
ag1465
ag827
ag1904
ag3273
ag275
ag122
ag1924
ag1251
ag483
ag1761
ag2199
ag3148
ag1325
ag744
ag699
ag1805
ag2959
ag783
ag1620
ag2891
ag3207
ag99
ag1477
ag551
ag290
ag1698
ag1233
ag1814
ag1791
ag2055
ag3308
ag2565
ag555
ag3447
ag312
ag454
ag1921
ag3063
ag2065
ag1374
ag814
ag2813
ag2964
ag1739
ag2416
ag927
ag2506
ag3034
ag1903
ag3121
ag1640
ag208
ag2490
ag2515
ag1198
ag1347
ag1712
ag34
ag210
ag1548
ag1094
ag56
ag3446
ag3226
ag2008
ag2707
aS'y'
ag3228
ag2228
ag1817
ag1109
ag1612
ag2790
ag2068
ag595
ag3296
ag2726
ag1836
ag305
ag1166
ag988
ag1840
ag400
ag1730
ag2814
ag1790
ag2129
ag1973
ag1471
ag3203
ag2884
ag3137
ag2091
ag2495
ag553
ag487
ag183
ag876
ag2316
ag2260
ag665
ag2062
ag1606
ag957
ag3334
ag1677
ag1652
ag3251
ag909
ag3481
ag2798
ag1945
ag873
ag2028
ag1952
ag903
ag514
ag281
ag366
ag1568
ag1981
ag756
ag2715
ag1750
ag212
ag80
ag3514
ag1586
ag475
ag634
ag1462
ag1960
ag3199
ag2139
ag581
ag2952
ag2951
ag325
ag1262
ag2598
ag518
ag2665
ag3523
ag1881
ag1148
ag952
ag768
ag1436
ag18
ag3092
ag384
ag1901
ag866
ag2555
ag1428
ag2547
ag446
ag94
ag2255
ag3264
ag716
ag2837
ag1243
ag1912
ag401
ag1697
ag591
ag1709
ag3075
ag491
ag871
ag2825
ag772
ag3128
ag1362
ag2937
ag2603
ag3068
ag1905
ag2263
ag2411
ag3479
ag2046
ag295
ag3087
ag1491
ag1522
ag2896
ag1858
ag1579
ag2111
ag2292
ag379
ag1733
ag304
ag1083
ag713
ag110
ag1846
ag1351
ag163
ag959
ag2767
ag3408
ag2943
ag2551
ag2052
ag2667
ag3194
ag1599
ag3287
ag2588
ag2815
ag3376
ag1485
ag2928
ag2213
ag3318
ag1291
ag882
ag978
ag1888
ag340
ag1894
ag2389
ag1270
ag606
ag852
ag584
ag2704
ag363
ag1621
ag1022
ag3279
ag795
ag589
ag1472
ag1628
ag54
ag37
ag1880
ag1146
ag22
ag791
ag1507
ag1778
ag968
ag2137
ag2294
ag1296
ag611
ag284
ag2531
ag575
ag2807
ag1308
ag1715
ag1694
ag1116
ag135
ag702
ag1509
ag2252
ag877
ag176
ag1213
ag2549
ag3332
ag477
ag854
ag2371
ag926
ag3151
ag291
ag636
ag1556
ag2774
ag1212
ag198
ag1373
ag1232
ag2700
ag1046
ag2974
ag2888
ag1219
ag2600
ag426
ag610
ag141
ag2702
ag423
ag3527
ag1276
ag2612
ag480
ag3099
ag1770
ag1004
ag464
ag383
ag1424
ag332
ag358
ag981
ag3107
ag2919
ag919
ag1189
ag252
ag2121
ag3427
ag979
ag631
ag3432
ag735
ag1008
ag793
ag2851
ag779
ag3085
ag355
ag2909
ag659
ag2095
ag2568
ag1175
ag2968
ag2478
ag1564
ag1587
ag1848
ag2174
ag432
ag2374
ag2428
ag521
ag2621
ag2666
ag1423
ag1703
ag3232
ag1150
ag2826
ag3212
ag3141
ag2482
ag541
ag686
ag1139
ag1997
ag3157
ag1648
ag2822
ag313
ag1425
ag157
ag914
ag2231
ag757
ag93
ag2796
ag3428
ag3499
ag2836
ag859
ag2222
ag725
ag642
ag993
ag2343
ag980
ag2936
ag1825
ag1626
ag623
ag3238
ag1868
ag131
ag388
ag2783
ag2864
ag2664
ag3395
ag843
ag2373
ag3467
ag2671
ag1076
ag1275
ag1455
ag2942
ag2261
ag558
ag266
ag1794
ag1767
ag2523
ag3115
ag103
ag1302
ag3519
ag3224
ag3046
ag1407
ag3349
ag279
ag2314
ag1125
ag1988
ag758
ag2548
ag1265
ag3457
ag2077
ag306
ag609
ag411
ag385
ag1389
ag3524
ag624
ag201
ag1047
ag1882
ag2537
ag2550
ag2357
ag418
ag1717
ag2645
ag1335
ag3307
ag3158
ag778
ag573
ag2190
ag2047
ag2454
ag1337
ag1163
ag19
ag2675
ag1216
ag2637
ag1169
ag690
ag3033
ag1913
ag2422
ag1391
ag1242
ag2467
ag2892
ag1549
ag741
ag2733
ag1156
ag120
ag1774
ag2184
ag785
ag1289
ag987
ag1688
ag646
ag3029
ag3320
ag667
ag3294
ag2470
ag2401
ag2021
ag2913
ag2999
ag2168
ag678
ag945
ag3192
ag560
ag564
ag784
ag3344
ag2552
ag891
ag1837
ag226
ag3146
ag1229
ag2526
ag1839
ag3323
ag1010
ag832
ag2693
ag841
ag50
ag1657
ag3179
ag1411
ag349
ag2058
ag1760
ag65
ag1355
ag3346
ag2283
ag1635
ag258
ag3419
aS'k'
ag2488
ag2618
ag2530
ag2827
ag69
ag414
ag2362
ag1749
ag697
ag1364
ag1448
ag2679
ag3372
ag2130
ag1940
ag2194
ag2810
ag435
ag1585
ag1857
ag1637
ag2333
ag3007
ag1199
ag1450
ag3458
ag583
ag2461
ag2622
ag513
ag1147
ag1891
ag3089
ag2895
ag2628
ag2663
ag3078
ag430
ag367
ag880
ag1569
ag2267
ag2272
ag2988
ag2084
ag2288
ag23
ag174
ag3282
ag1339
ag342
ag3163
ag2450
ag1138
ag2922
ag726
ag1494
ag582
ag855
ag2553
ag1611
ag2087
ag298
ag3119
ag20
ag770
ag2863
ag1140
ag3249
ag1687
ag3371
ag2742
ag2480
ag711
ag2206
ag2407
ag799
ag1007
ag2351
ag2839
ag733
ag1304
ag3521
ag3430
ag3185
ag2710
ag1078
ag2119
ag3177
ag3167
ag1032
ag2063
ag92
ag2934
ag2203
ag1285
ag2859
ag3363
ag1006
ag991
ag2469
ag2210
ag225
ag1942
ag443
ag3439
ag2390
ag1813
ag1067
ag2103
ag928
ag3454
ag1609
ag1685
ag1236
ag1580
ag95
ag2350
ag2854
ag2871
ag2513
ag237
ag766
ag2248
ag2893
ag292
ag124
ag2972
ag3147
ag1470
ag2444
ag687
ag1604
ag635
ag3123
ag1203
ag398
ag1574
ag970
ag675
ag3434
ag83
ag621
ag2160
ag257
ag2153
ag1849
ag1123
ag1955
ag1642
ag1201
ag1017
ag351
ag1917
ag948
ag2346
ag1651
ag1458
ag700
ag2074
ag2342
ag2975
ag2800
ag219
ag1918
ag907
ag596
ag2915
ag2853
ag1843
ag336
ag1831
ag1613
ag2947
ag1923
ag3530
ag2038
ag2797
ag1443
ag605
ag1405
ag1550
ag2816
ag2349
ag3175
ag249
ag3134
ag938
ag321
ag2687
ag869
ag1496
ag1218
ag81
ag368
ag3533
ag641
ag706
ag1869
ag3277
ag1592
ag2167
ag2676
ag2209
ag602
ag1399
ag692
ag1091
ag1555
ag2082
ag3373
ag2639
ag1162
ag2434
ag52
ag1185
ag2644
ag942
ag3254
ag1117
ag441
ag1993
ag1748
ag3091
ag2405
ag3463
ag211
ag1947
ag474
ag1729
ag3326
ag3384
ag801
ag3008
ag1113
ag3183
ag2344
ag802
ag2642
ag161
ag2200
ag3398
ag2720
ag48
ag2755
ag1392
ag2257
ag1667
ag3056
ag3487
ag1158
ag2804
ag3338
ag61
ag1546
ag3340
ag906
ag412
ag3424
ag2987
ag167
ag1180
ag2332
ag1533
ag2417
ag1772
ag1773
ag3284
ag2458
ag657
ag2386
ag1655
ag3051
ag1260
ag457
ag619
ag2330
ag1644
ag923
ag1488
ag2601
ag745
ag3110
ag2278
ag137
ag496
ag3006
ag1227
ag1713
ag2424
ag1911
ag1111
ag2043
ag2921
ag1619
ag1804
ag2376
ag1151
ag2208
ag1936
ag615
ag811
ag1457
ag2899
ag1089
ag2221
ag1589
ag1108
ag3350
ag2177
ag2965
ag1603
ag1446
ag2582
ag360
ag465
ag2253
ag2820
ag1683
ag25
ag374
ag535
ag3178
ag200
ag1187
ag3313
ag3280
ag516
ag2152
ag2436
ag2155
ag2595
ag2451
ag2903
ag924
ag283
ag369
ag1787
ag739
ag2486
ag1223
ag2528
ag121
ag3222
ag3062
ag228
ag2688
ag625
ag3409
ag916
ag3064
ag794
ag3297
ag2147
ag1859
ag2009
ag1969
ag71
ag2894
ag458
ag3415
ag3407
ag26
ag2615
ag3122
ag2901
ag1084
ag1054
ag2268
ag3231
ag3500
ag3053
ag3035
ag3142
ag3204
ag3508
ag2142
ag2093
ag1497
ag46
ag2886
ag2250
ag3039
ag2317
ag2172
ag431
ag550
ag3534
ag1332
ag3106
ag851
ag1167
ag776
ag1033
ag3319
ag849
ag3285
ag1693
ag881
ag2438
ag740
ag2365
ag3066
ag1736
ag2696
ag997
ag1853
ag2498
ag976
ag2583
ag2433
ag751
ag3347
ag2030
ag1055
ag2563
ag276
ag149
ag1745
ag1452
ag562
ag2419
ag3248
ag2518
ag2907
ag2041
ag2613
ag1422
ag3540
ag2662
ag1573
ag2533
ag2035
ag2768
ag1420
ag223
ag3492
ag2760
ag523
ag3061
ag561
ag277
ag2956
ag3095
ag433
ag691
ag2426
ag2705
ag1331
ag3242
ag1050
ag2318
ag1074
ag1412
ag1104
ag2472
ag269
ag977
ag1795
ag1851
ag3261
ag961
ag2162
ag1370
ag515
ag2976
ag1134
ag506
ag601
ag2249
ag1072
ag1591
ag1809
ag1896
ag1885
ag2672
ag28
ag1695
ag3453
ag2485
ag1867
ag1971
ag1746
ag3300
ag3460
ag3055
ag437
ag819
ag2607
ag127
ag1968
ag3290
ag2359
ag3241
ag3537
ag1144
ag98
ag2204
ag2750
ag2412
ag2233
ag2569
ag2089
ag2491
ag2287
ag2354
ag2690
ag372
ag438
ag1824
ag3038
ag3382
ag3247
ag3403
ag1680
ag218
ag3272
ag931
ag1253
ag1765
ag3528
ag2614
ag2764
ag853
ag2011
ag1085
ag2758
ag1481
ag2872
ag2259
ag1752
ag1445
ag2580
ag3104
ag1996
ag125
ag2619
ag282
ag3331
ag588
ag1069
ag3390
ag2295
ag511
ag2567
ag409
ag1632
ag3003
ag2761
ag1871
ag622
ag1090
ag946
ag2430
ag660
ag1413
ag3302
ag1039
ag1449
ag2476
ag1009
ag1160
ag3362
ag3216
ag350
ag82
ag1489
ag1595
ag2175
ag1714
ag3168
ag182
ag72
ag1439
ag662
ag683
ag2456
ag3399
ag1588
ag41
ag3191
ag68
ag2597
ag1506
ag2923
ag3049
ag1190
ag3010
ag1943
ag105
ag1280
ag2833
ag540
ag3001
ag153
ag1696
ag701
ag3265
ag2310
ag2136
ag2448
ag1178
ag1723
ag1636
ag1725
ag1950
ag682
ag810
ag392
ag1516
ag1511
ag1539
ag3250
ag3129
ag1266
ag3200
ag1381
ag1608
ag1473
ag2725
ag1172
ag1486
ag3256
ag3299
ag62
ag761
ag254
ag2641
ag2431
ag830
ag2154
ag989
ag1596
ag2452
ag868
ag195
ag1798
ag2716
ag1711
ag3433
ag2340
ag1782
ag3375
ag806
ag677
ag185
ag1784
ag2186
ag2443
ag2775
ag242
ag2962
ag1482
ag502
ag1957
ag1476
ag1170
ag2786
ag485
ag2910
ag587
ag396
ag2286
ag2220
ag1902
ag1277
ag3220
ag244
ag777
ag3367
ag1137
ag2066
ag2754
ag3341
ag144
ag1043
ag2832
ag2460
ag2229
ag1998
ag1371
ag2356
ag501
ag1802
ag352
ag1672
ag3539
ag456
ag767
ag1442
ag429
ag1530
ag1965
ag3031
ag578
ag861
ag1264
ag1057
ag1404
ag1049
ag294
ag2039
ag1845
ag2465
ag1460
ag2647
ag1045
ag2573
ag2327
ag2694
ag3359
ag3343
ag1692
ag2410
ag231
ag986
ag2969
ag1278
ag2830
ag3057
ag2023
ag162
ag949
ag2453
ag3165
ag2646
ag3497
ag2445
ag1041
ag2398
ag1638
ag1220
ag2912
ag1272
ag3437
ag169
ag316
ag1563
ag3244
ag1376
ag1126
ag538
ag2006
ag1517
ag999
ag1493
ag3126
ag1492
ag630
ag2823
ag1575
ag204
ag803
ag3507
ag370
ag930
ag3160
ag3489
ag353
ag191
ag1607
ag1403
ag3448
ag3370
ag2706
ag3239
ag1842
ag440
ag389
ag70
ag3400
ag2230
ag3084
ag2146
ag2744
ag721
ag1349
ag3532
ag3473
ag151
ag2638
ag2037
ag2334
ag850
ag2606
ag2914
ag2572
ag2298
ag736
ag1402
ag1118
ag1675
ag1977
ag3274
ag2692
ag2337
ag2980
ag1224
ag3186
ag3452
ag759
ag55
ag3036
ag2539
ag2418
ag2809
ag90
ag666
ag2345
ag3462
ag2305
ag2180
ag1939
ag1625
ag1870
ag2799
ag330
ag154
ag1666
ag3472
ag3531
ag2274
ag888
ag2593
ag1647
ag574
ag3475
ag2703
ag1440
ag2924
ag743
ag1984
ag2841
ag3127
ag1763
ag1976
ag2940
ag3435
ag60
ag2636
ag3211
ag1884
ag2439
ag3520
ag1832
ag2734
ag1850
ag3281
ag444
ag823
ag3411
ag3412
ag2795
ag899
ag2674
ag2616
ag2483
ag2564
ag348
ag603
ag782
ag2658
ag3002
ag2375
ag2993
ag1815
ag1503
ag3476
ag2384
ag1823
ag1610
ag2697
ag3381
ag2224
ag1543
ag2602
ag2880
ag317
ag1353
ag857
ag1929
ag3337
ag1112
ag689
ag145
ag1615
ag38
ag570
ag3315
ag3394
ag2413
ag654
ag3490
ag78
ag3502
ag867
ag1311
ag150
ag3536
ag2114
ag3215
ag462
ag2740
ag2673
ag425
ag1395
ag138
ag1835
ag839
ag2134
ag3217
ag3015
ag2178
ag445
ag3414
ag1196
ag2471
ag1501
ag256
ag2276
ag2717
ag2718
ag2054
ag239
ag3021
ag2575
ag2781
ag3351
ag3388
ag473
ag1578
ag338
ag1951
ag2300
ag3130
ag1011
ag838
ag1025
ag1895
ag1179
ag2394
ag1249
ag3335
ag2505
ag2927
ag2857
ag66
ag604
ag1560
ag1956
ag1301
ag3345
ag1502
ag2787
ag2620
ag1441
ag1197
ag2729
ag35
ag1526
ag2534
ag3339
ag107
ag808
ag1758
ag2127
ag3348
ag908
ag1105
ag2544
ag864
ag1350
ag1136
ag3288
ag331
ag2643
ag489
ag2684
ag1598
ag955
ag3410
ag995
ag1601
ag59
ag1554
ag2581
ag1819
ag2094
ag1789
ag2185
ag998
ag2493
ag1298
ag2905
ag3314
ag2141
ag2763
ag2290
ag670
ag932
ag1154
ag31
ag297
ag2510
ag1887
ag1101
ag3401
ag1583
ag1327
ag3103
ag1444
ag3111
ag2944
ag934
ag1878
ag79
ag324
ag2846
ag1324
ag2181
ag2535
ag2247
ag241
ag2759
ag2828
ag3100
ag1323
ag845
ag2651
ag1928
ag1282
ag2138
ag2882
ag676
ag2477
ag3451
ag2266
ag2048
ag1856
ag1744
ag1247
ag2197
ag2246
ag2681
ag2315
ag246
ag189
ag1671
ag937
ag548
ag2963
ag1682
ag2538
ag2906
ag2269
ag3541
ag3208
ag2019
ag2571
ag2075
ag171
ag1678
ag296
ag3444
ag393
ag3139
ag1627
ag3431
ag2279
ag2521
ag259
ag1183
ag1788
ag703
ag964
ag2627
ag2876
ag1357
ag2982
ag2634
ag2875
ag1346
ag106
ag1724
ag3406
ag3153
ag3060
ag1630
ag3333
ag2948
ag2308
ag3374
ag3512
ag825
ag860
ag1515
ag2685
ag552
ag1553
ag221
ag2399
ag1406
ag3229
ag3396
ag534
ag500
ag1200
ag2782
ag2834
ag2801
ag1110
ag190
ag2929
ag944
ag32
ag2421
ag3423
ag3193
ag2031
ag498
ag567
ag1801
ag3416
ag982
ag2751
ag293
ag3188
ag2002
ag1427
ag2113
ag76
ag1676
ag2225
ag1244
ag1668
ag1484
ag364
ag220
ag2319
ag468
ag1641
ag2015
ag1114
ag526
ag205
ag2370
ag1456
ag1910
ag186
ag3380
ag894
ag1992
ag3404
ag893
ag1764
ag2459
ag1252
ag2326
ag343
ag1352
ag288
ag2911
ag3291
ag3498
ag1052
ag2979
ag792
ag3485
ag1434
ag809
ag3138
ag580
ag2073
ag3269
ag2737
ag2835
ag3013
ag3230
ag402
ag1807
ag2415
ag2577
ag680
ag3440
ag3542
ag510
ag2188
ag1326
ag844
ag2890
ag1907
ag1847
ag626
ag482
ag1937
ag2509
ag519
ag2473
aS'w'
ag1810
ag3237
ag545
ag309
ag1898
ag2719
ag2524
ag1435
ag1214
ag939
ag1073
ag2978
ag3184
ag2293
ag563
ag3240
ag3456
ag734
ag717
ag2986
ag53
ag1235
ag614
ag2277
ag658
ag2525
ag2789
ag1059
ag2887
ag1762
ag3227
ag1959
ag86
ag2916
ag1209
ag1188
ag3357
ag2578
ag2536
ag504
ag1544
ag2995
ag3054
ag774
ag3503
ag3070
ag57
ag2878
ag1793
ag3442
ag2304
ag517
ag3032
ag2380
ag2631
ag644
ag2558
ag1915
ag1314
ag2984
ag649
ag3450
ag116
ag113
ag1946
ag415
ag1662
ag2214
ag2223
ag3365
ag356
ag2793
ag2949
ag1673
ag2824
ag762
ag3443
ag2366
ag3470
ag1934
ag449
ag1155
ag1239
ag2967
ag1336
ag67
ag1307
ag2282
ag147
ag2284
ag2275
ag1916
ag1948
ag2669
ag2378
ag920
ag2865
ag1686
ag2157
ag3255
ag100
ag3425
ag377
ag2125
ag1263
ag91
ag3076
ag1240
ag3037
ag2850
ag688
ag2408
ag1048
ag1383
ag1221
ag954
ag1639
ag1080
ag2323
ag341
ag1019
ag760
ag2849
ag2566
ag1661
ag240
ag1577
ag1572
ag2271
ag347
ag2382
ag2504
ag3486
ag874
ag633
ag2379
ag817
ag856
ag3017
ag2659
ag2738
ag798
ag3097
ag2722
ag833
ag323
ag738
ag1909
ag1567
ag1127
ag2766
ag3164
ag1811
ag2361
ag3218
ag197
ag763
ag2920
ag566
ag1727
ag917
ag1226
ag797
ag2711
ag345
ag2051
ag3209
ag1513
ag194
ag1962
ag1097
ag2584
ag1475
ag199
ag1728
ag2821
ag2122
ag146
ag2930
ag3493
ag1906
ag3213
ag1963
ag234
ag2081
ag236
ag1377
ag1130
ag1070
ag2166
ag229
ag1527
ag2367
ag527
ag97
ag2542
ag731
ag2494
ag3074
ag2215
ag2752
ag260
ag166
ag1658
ag326
ag652
ag1681
ag128
ag1520
ag3101
ag493
ag2655
ag1120
ag3329
ag3065
ag3257
ag985
ag2086
ag1860
ag3245
ag2591
ag451
ag2239
ag773
ag1013
ag2217
ag1679
ag354
ag49
ag2932
ag115
ag2050
ag1808
ag320
ag2475
ag3501
ag1753
ag669
ag2817
ag781
ag2170
ag710
ag1372
ag3025
ag3252
ag858
ag1348
ag3026
ag3118
ag2512
ag1927
ag361
ag1914
ag1410
ag1524
ag1002
ag2749
ag1429
ag1360
ag512
ag1315
ag3042
ag613
ag847
ag2776
ag3449
ag1690
ag922
ag1665
ag2123
ag140
ag2961
ag1766
ag2805
ag2996
ag1889
ag139
ag1862
ag264
ag3120
ag2339
ag1431
ag3418
ag972
ag1001
ag1540
ag1669
ag1061
ag2404
ag2966
ag2753
ag2044
ag724
ag921
ag3420
ag2874
ag1584
ag837
ag1705
ag1211
ag3509
ag3189
ag1000
ag3019
ag1932
ag3113
ag1879
ag16
ag1602
ag1510
ag337
ag663
ag452
ag889
ag1380
ag1342
ag3195
ag158
ag2925
ag2165
ag2227
ag2309
ag2842
ag160
ag3045
ag2042
ag1876
ag1387
ag752
ag2847
ag371
ag2219
ag648
ag1478
ag1034
ag848
ag2226
ag712
ag2083
ag2950
ag2898
ag956
ag272
ag36
ag399
ag484
ag2745
ag1159
ag2594
ag2543
ag2708
ag2492
aS'z'
ag2236
asbsS'max_document_length'
p3547
I93
sS'_tokenizer'
p3548
ctensorflow.contrib.learn.python.learn.preprocessing.text
tokenizer
p3549
sS'min_frequency'
p3550
I6
sb.